文件：AppMain.c    编译器版本 HGASM 0202 页次1


   1  0000              ; Generated by holtek-gcc v3.18, Thu Aug 02 09:03:51 2018
   2  0000              ; 
   3  0000              ; Configuration:
   4  0000              ;       without long instruction
   5  0000              ;       Single ROM, Multi-RAM
   6  0000              ;       bits_per_rom_unit:16
   7  0000              ;       with mp1
   8  0000              ;       with tbhp, address(0x9)
   9  0000              ;          Use tabrd-const
  10  0000              ;       
  11  0000              ;       
  12  0000              ;       
  13  0000              ; use 'tabrdc' instead of 'tabrd'
  14  0000              ;       
  15  0000              
  16  0000              #pragma translator "holtek-gcc 4.6.4" "3.18" "build 20130711"
  17  0000              ; Rebuild 126
  18  0000              
  19  0000              ir equ [2]
  20  0000              mp equ [3]
  21  0000              sbp equ [1]
  22  0000              acc equ [5]
  23  0000              bp equ [4]
  24  0000              tblp equ [7]
  25  0000              tbhp equ [9]
  26  0000              status equ [10]
  27  0000              c equ [10].0
  28  0000              ac equ [10].1
  29  0000              z equ [10].2
  30  0000              ov equ [10].3
  31  0000              intc equ [11]
  32  0000              
  33  0000              extern ra:byte
  34  0000              extern rb:byte
  35  0000              extern rc:byte
  36  0000              extern rd:byte
  37  0000              extern re:byte
  38  0000              extern rf:byte
  39  0000              extern rg:byte
  40  0000              extern rh:byte
  41  0000              extern _Crom2Prom:near
  42  0000              extern _Crom2PromNext:near
  43  0000              
  44  0000              RAMBANK 0 @HCCINIT, @HCCINIT0
  45  0000              
  46  0000              RAMBANK 0 @BITDATASEC, @BITDATASEC1
  47  0000              @HCCINIT	.section 'data'
  48  0000              @HCCINIT0	.section 'data'
  49  0000              @BITDATASEC	 .section 'data'
  50  0000              @BITDATASEC1	 .section 'data'
  51  0000              
  52  0000              #pragma debug scope 1 1
  53  0000              	extern __DELAY3:near
  54  0000              	extern __DELAYX3:near
  55  0000              	extern __DELAYX6:near
  56  0000              	extern __DELAYY5:near
  57  0000              	extern __DELAYY3:near
  58  0000              	extern _builtin_holtek_delay_2:byte
  59  0000              public _AppMainInit
文件：AppMain.ASM  编译器版本 HGASM 0202 页次2

  60  0000              #pragma debug scope 2 1

   9  0000              #line 9 "F:\SVNRepo\Project\BS82D20A_AOPU_5KEY\USER_PROGRAM\AppMain.c"
   9  0000              _AppMainInit .section 'code'
   9  0000              _AppMainInit proc
  10  0000              #line 10 "F:\SVNRepo\Project\BS82D20A_AOPU_5KEY\USER_PROGRAM\AppMain.c"
  10  0000  1F00     R  	clr _AppData[0]
  11  0001              #line 11 "F:\SVNRepo\Project\BS82D20A_AOPU_5KEY\USER_PROGRAM\AppMain.c"
  11  0001  1F00     R  	clr _AppData[6]
  11  0002  1F00     R  	clr _AppData[7]
  12  0003              #line 12 "F:\SVNRepo\Project\BS82D20A_AOPU_5KEY\USER_PROGRAM\AppMain.c"
  12  0003  1F00     R  	clr _AppData[26]
  13  0004              #line 13 "F:\SVNRepo\Project\BS82D20A_AOPU_5KEY\USER_PROGRAM\AppMain.c"
  13  0004  1F00     R  	clr _AppData[24]
  14  0005              #line 14 "F:\SVNRepo\Project\BS82D20A_AOPU_5KEY\USER_PROGRAM\AppMain.c"
  14  0005  1F00     R  	clr _AppData[25]
  15  0006              #line 15 "F:\SVNRepo\Project\BS82D20A_AOPU_5KEY\USER_PROGRAM\AppMain.c"
  15  0006  1F00     R  	clr _AppData[22]
  17  0007              #line 17 "F:\SVNRepo\Project\BS82D20A_AOPU_5KEY\USER_PROGRAM\AppMain.c"
  17  0007  1F00     R  	clr _AppData[10]
  17  0008  1F00     R  	clr _AppData[11]
  18  0009              #line 18 "F:\SVNRepo\Project\BS82D20A_AOPU_5KEY\USER_PROGRAM\AppMain.c"
  18  0009  1F00     R  	clr _AppData[13]
  18  000A  1F00     R  	clr _AppData[14]
  19  000B              #line 19 "F:\SVNRepo\Project\BS82D20A_AOPU_5KEY\USER_PROGRAM\AppMain.c"
  19  000B  1F00     R  	clr _AppData[16]
  19  000C  1F00     R  	clr _AppData[17]
  20  000D              #line 20 "F:\SVNRepo\Project\BS82D20A_AOPU_5KEY\USER_PROGRAM\AppMain.c"
  20  000D  1F00     R  	clr _AppData[20]
  20  000E  1F00     R  	clr _AppData[21]
  23  000F              #line 23 "F:\SVNRepo\Project\BS82D20A_AOPU_5KEY\USER_PROGRAM\AppMain.c"
  23  000F  1F00     R  	clr _AppData[12]
  24  0010              #line 24 "F:\SVNRepo\Project\BS82D20A_AOPU_5KEY\USER_PROGRAM\AppMain.c"
  24  0010  1F00     R  	clr _AppData[15]
  25  0011              #line 25 "F:\SVNRepo\Project\BS82D20A_AOPU_5KEY\USER_PROGRAM\AppMain.c"
  25  0011  1F00     R  	clr _AppData[18]
  26  0012              #line 26 "F:\SVNRepo\Project\BS82D20A_AOPU_5KEY\USER_PROGRAM\AppMain.c"
  26  0012  1F00     R  	clr _AppData[19]
  29  0013              #line 29 "F:\SVNRepo\Project\BS82D20A_AOPU_5KEY\USER_PROGRAM\AppMain.c"
  29  0013  3400     R  	clr _AppData[28].0
  30  0014              #line 30 "F:\SVNRepo\Project\BS82D20A_AOPU_5KEY\USER_PROGRAM\AppMain.c"
  30  0014  3000     R  	set _AppData[28].1
  31  0015              #line 31 "F:\SVNRepo\Project\BS82D20A_AOPU_5KEY\USER_PROGRAM\AppMain.c"
  31  0015  3400     R  	clr _AppData[28].2
  32  0016              #line 32 "F:\SVNRepo\Project\BS82D20A_AOPU_5KEY\USER_PROGRAM\AppMain.c"
  32  0016  3000     R  	set _AppData[28].3
  33  0017              #line 33 "F:\SVNRepo\Project\BS82D20A_AOPU_5KEY\USER_PROGRAM\AppMain.c"
  33  0017  3400     R  	clr _AppData[28].4
  34  0018              #line 34 "F:\SVNRepo\Project\BS82D20A_AOPU_5KEY\USER_PROGRAM\AppMain.c"
  34  0018  3000     R  	set _AppData[28].5
  35  0019              #line 35 "F:\SVNRepo\Project\BS82D20A_AOPU_5KEY\USER_PROGRAM\AppMain.c"
  35  0019  3400     R  	clr _AppData[28].6
  36  001A              #line 36 "F:\SVNRepo\Project\BS82D20A_AOPU_5KEY\USER_PROGRAM\AppMain.c"
  36  001A  3000     R  	set _AppData[28].7
  38  001B              #line 38 "F:\SVNRepo\Project\BS82D20A_AOPU_5KEY\USER_PROGRAM\AppMain.c"
  38  001B  2000     E  	call _LedInit
  39  001C              #line 39 "F:\SVNRepo\Project\BS82D20A_AOPU_5KEY\USER_PROGRAM\AppMain.c"
  39  001C  2000     E  	call _KeyInit
  40  001D              #line 40 "F:\SVNRepo\Project\BS82D20A_AOPU_5KEY\USER_PROGRAM\AppMain.c"
  40  001D  2000     E  	call _TimerInit
文件：AppMain.c    编译器版本 HGASM 0202 页次3

  41  001E              #line 41 "F:\SVNRepo\Project\BS82D20A_AOPU_5KEY\USER_PROGRAM\AppMain.c"
  41  001E  2000     E  	call _PTM0AInit
  43  001F              #line 43 "F:\SVNRepo\Project\BS82D20A_AOPU_5KEY\USER_PROGRAM\AppMain.c"
  43  001F  2000     E  	call _UartInitial
  43  0020  0003        	ret
  43  0021              _AppMainInit endp
  43  0021              #line 43 "F:\SVNRepo\Project\BS82D20A_AOPU_5KEY\USER_PROGRAM\AppMain.c"
  43  0021              #pragma debug scope 1 1
  43  0021              ___pc equ [57]
  43  0021              ___pd equ [65]
  43  0021              public _PeripheralSetAirBlow
  43  0021              #pragma debug scope 3 1
  91  0021              #line 91 "F:\SVNRepo\Project\BS82D20A_AOPU_5KEY\USER_PROGRAM\AppMain.c"
  91  0000              _PeripheralSetAirBlow .section 'code'
  91  0000              _PeripheralSetAirBlow proc
  92  0000              #line 92 "F:\SVNRepo\Project\BS82D20A_AOPU_5KEY\USER_PROGRAM\AppMain.c"
  92  0000  31B9        	set [57].3
  93  0001              #line 93 "F:\SVNRepo\Project\BS82D20A_AOPU_5KEY\USER_PROGRAM\AppMain.c"
  93  0001  1080     R  	sz _AppData[12]
  93  0002  2800     R  	jmp _L3
  95  0003              #line 95 "F:\SVNRepo\Project\BS82D20A_AOPU_5KEY\USER_PROGRAM\AppMain.c"
  95  0003  3141        	set [65].2
  95  0004              _L3:
 103  0004              #line 103 "F:\SVNRepo\Project\BS82D20A_AOPU_5KEY\USER_PROGRAM\AppMain.c"
 103  0004  2000     E  	call _LED_STANDBY_OFF
 103  0005  0003        	ret
 103  0006              _PeripheralSetAirBlow endp
 103  0006              #line 103 "F:\SVNRepo\Project\BS82D20A_AOPU_5KEY\USER_PROGRAM\AppMain.c"
 103  0006              #pragma debug scope 1 1
 103  0006              public _PeripheralUnsetAirBlow
 103  0006              #pragma debug scope 4 1
 107  0006              #line 107 "F:\SVNRepo\Project\BS82D20A_AOPU_5KEY\USER_PROGRAM\AppMain.c"
 107  0000              _PeripheralUnsetAirBlow .section 'code'
 107  0000              _PeripheralUnsetAirBlow proc
 108  0000              #line 108 "F:\SVNRepo\Project\BS82D20A_AOPU_5KEY\USER_PROGRAM\AppMain.c"
 108  0000  35B9        	clr [57].3
 109  0001              #line 109 "F:\SVNRepo\Project\BS82D20A_AOPU_5KEY\USER_PROGRAM\AppMain.c"
 109  0001  0700     R  	mov a,_AppData[16]
 109  0002  0500     R  	or a,_AppData[17]
 109  0003  390A        	snz z
 109  0004  2800     R  	jmp _L5
 111  0005              #line 111 "F:\SVNRepo\Project\BS82D20A_AOPU_5KEY\USER_PROGRAM\AppMain.c"
 111  0005  3541        	clr [65].2
 111  0006              _L5:
 111  0006  0003        	ret
 111  0007              _PeripheralUnsetAirBlow endp
 111  0007              #line 111 "F:\SVNRepo\Project\BS82D20A_AOPU_5KEY\USER_PROGRAM\AppMain.c"
 111  0007              #pragma debug scope 1 1
 111  0007              ___pb equ [32]
 111  0007              public _PeripheralSetAirHeating
 111  0007              #pragma debug scope 5 1
 116  0007              #line 116 "F:\SVNRepo\Project\BS82D20A_AOPU_5KEY\USER_PROGRAM\AppMain.c"
 116  0000              _PeripheralSetAirHeating .section 'code'
 116  0000              _PeripheralSetAirHeating proc
 117  0000              #line 117 "F:\SVNRepo\Project\BS82D20A_AOPU_5KEY\USER_PROGRAM\AppMain.c"
 117  0000  30B9        	set [57].1
 118  0001              #line 118 "F:\SVNRepo\Project\BS82D20A_AOPU_5KEY\USER_PROGRAM\AppMain.c"
 118  0001  3141        	set [65].2
 119  0002              #line 119 "F:\SVNRepo\Project\BS82D20A_AOPU_5KEY\USER_PROGRAM\AppMain.c"
 119  0002  1080     R  	sz _AppData[18]
文件：AppMain.c    编译器版本 HGASM 0202 页次4

 119  0003  2800     R  	jmp _L8
 121  0004              #line 121 "F:\SVNRepo\Project\BS82D20A_AOPU_5KEY\USER_PROGRAM\AppMain.c"
 121  0004  33A0        	set [32].7
 121  0005              _L8:
 129  0005              #line 129 "F:\SVNRepo\Project\BS82D20A_AOPU_5KEY\USER_PROGRAM\AppMain.c"
 129  0005  2000     E  	call _LED_STANDBY_OFF
 129  0006  0003        	ret
 129  0007              _PeripheralSetAirHeating endp
 129  0007              #line 129 "F:\SVNRepo\Project\BS82D20A_AOPU_5KEY\USER_PROGRAM\AppMain.c"
 129  0007              #pragma debug scope 1 1
 129  0007              public _PeripheralUnsetAirHeating
 129  0007              #pragma debug scope 6 1
 133  0007              #line 133 "F:\SVNRepo\Project\BS82D20A_AOPU_5KEY\USER_PROGRAM\AppMain.c"
 133  0000              _PeripheralUnsetAirHeating .section 'code'
 133  0000              _PeripheralUnsetAirHeating proc
 134  0000              #line 134 "F:\SVNRepo\Project\BS82D20A_AOPU_5KEY\USER_PROGRAM\AppMain.c"
 134  0000  34B9        	clr [57].1
 135  0001              #line 135 "F:\SVNRepo\Project\BS82D20A_AOPU_5KEY\USER_PROGRAM\AppMain.c"
 135  0001  37A0        	clr [32].7
 135  0002  0003        	ret
 135  0003              _PeripheralUnsetAirHeating endp
 135  0003              #line 135 "F:\SVNRepo\Project\BS82D20A_AOPU_5KEY\USER_PROGRAM\AppMain.c"
 135  0003              #pragma debug scope 1 1
 135  0003              public _PeripheralSetAirChange
 135  0003              #pragma debug scope 7 1
 140  0003              #line 140 "F:\SVNRepo\Project\BS82D20A_AOPU_5KEY\USER_PROGRAM\AppMain.c"
 140  0000              _PeripheralSetAirChange .section 'code'
 140  0000              _PeripheralSetAirChange proc
 147  0000              #line 147 "F:\SVNRepo\Project\BS82D20A_AOPU_5KEY\USER_PROGRAM\AppMain.c"
 147  0000  3139        	set [57].2
 148  0001              #line 148 "F:\SVNRepo\Project\BS82D20A_AOPU_5KEY\USER_PROGRAM\AppMain.c"
 148  0001  1080     R  	sz _AppData[15]
 148  0002  2800     R  	jmp _L11
 150  0003              #line 150 "F:\SVNRepo\Project\BS82D20A_AOPU_5KEY\USER_PROGRAM\AppMain.c"
 150  0003  31C1        	set [65].3
 150  0004              _L11:
 152  0004              #line 152 "F:\SVNRepo\Project\BS82D20A_AOPU_5KEY\USER_PROGRAM\AppMain.c"
 152  0004  2000     E  	call _LED_STANDBY_OFF
 152  0005  0003        	ret
 152  0006              _PeripheralSetAirChange endp
 152  0006              #line 152 "F:\SVNRepo\Project\BS82D20A_AOPU_5KEY\USER_PROGRAM\AppMain.c"
 152  0006              #pragma debug scope 1 1
 152  0006              public _PeripheralUnsetAirChange
 152  0006              #pragma debug scope 8 1
 156  0006              #line 156 "F:\SVNRepo\Project\BS82D20A_AOPU_5KEY\USER_PROGRAM\AppMain.c"
 156  0000              _PeripheralUnsetAirChange .section 'code'
 156  0000              _PeripheralUnsetAirChange proc
 157  0000              #line 157 "F:\SVNRepo\Project\BS82D20A_AOPU_5KEY\USER_PROGRAM\AppMain.c"
 157  0000  3539        	clr [57].2
 158  0001              #line 158 "F:\SVNRepo\Project\BS82D20A_AOPU_5KEY\USER_PROGRAM\AppMain.c"
 158  0001  35C1        	clr [65].3
 158  0002  0003        	ret
 158  0003              _PeripheralUnsetAirChange endp
 158  0003              #line 158 "F:\SVNRepo\Project\BS82D20A_AOPU_5KEY\USER_PROGRAM\AppMain.c"
 158  0003              #pragma debug scope 1 1
 158  0003              public _PeripheralSetLightHeating
 158  0003              #pragma debug scope 9 1
 162  0003              #line 162 "F:\SVNRepo\Project\BS82D20A_AOPU_5KEY\USER_PROGRAM\AppMain.c"
 162  0000              _PeripheralSetLightHeating .section 'code'
 162  0000              _PeripheralSetLightHeating proc
文件：AppMain.c    编译器版本 HGASM 0202 页次5

 163  0000              #line 163 "F:\SVNRepo\Project\BS82D20A_AOPU_5KEY\USER_PROGRAM\AppMain.c"
 163  0000  3039        	set [57].0
 164  0001              #line 164 "F:\SVNRepo\Project\BS82D20A_AOPU_5KEY\USER_PROGRAM\AppMain.c"
 164  0001  3320        	set [32].6
 166  0002              #line 166 "F:\SVNRepo\Project\BS82D20A_AOPU_5KEY\USER_PROGRAM\AppMain.c"
 166  0002  2000     E  	call _LED_STANDBY_OFF
 166  0003  0003        	ret
 166  0004              _PeripheralSetLightHeating endp
 166  0004              #line 166 "F:\SVNRepo\Project\BS82D20A_AOPU_5KEY\USER_PROGRAM\AppMain.c"
 166  0004              #pragma debug scope 1 1
 166  0004              public _PeripheralUnsetLightHeating
 166  0004              #pragma debug scope 10 1
 170  0004              #line 170 "F:\SVNRepo\Project\BS82D20A_AOPU_5KEY\USER_PROGRAM\AppMain.c"
 170  0000              _PeripheralUnsetLightHeating .section 'code'
 170  0000              _PeripheralUnsetLightHeating proc
 171  0000              #line 171 "F:\SVNRepo\Project\BS82D20A_AOPU_5KEY\USER_PROGRAM\AppMain.c"
 171  0000  3439        	clr [57].0
 172  0001              #line 172 "F:\SVNRepo\Project\BS82D20A_AOPU_5KEY\USER_PROGRAM\AppMain.c"
 172  0001  3720        	clr [32].6
 172  0002  0003        	ret
 172  0003              _PeripheralUnsetLightHeating endp
 172  0003              #line 172 "F:\SVNRepo\Project\BS82D20A_AOPU_5KEY\USER_PROGRAM\AppMain.c"
 172  0003              #pragma debug scope 1 1
 172  0003              public _PeripheralSet
 172  0003              #pragma debug scope 11 1
 176  0003              #line 176 "F:\SVNRepo\Project\BS82D20A_AOPU_5KEY\USER_PROGRAM\AppMain.c"
 176  0000              _PeripheralSet .section 'code'
 176  0000              _PeripheralSet proc
 176  0000  0002[           local _PeripheralSet_2 db 2 dup(?)	; 0,2
            00
            ]
 177  0002              #line 177 "F:\SVNRepo\Project\BS82D20A_AOPU_5KEY\USER_PROGRAM\AppMain.c"
 177  0000  1080     R  	sz _AppData[26]
 177  0001  2800     R  	jmp _L15
 178  0002              #line 178 "F:\SVNRepo\Project\BS82D20A_AOPU_5KEY\USER_PROGRAM\AppMain.c"
 178  0002  0700     R  	mov a,_AppData[0]
 178  0003  0A03        	sub a,3
 178  0004  390A        	snz z
 178  0005  2800     R  	jmp _L15
 180  0006              #line 180 "F:\SVNRepo\Project\BS82D20A_AOPU_5KEY\USER_PROGRAM\AppMain.c"
 180  0006  0700     R  	mov a,_AppData[10]
 180  0007  0080     E  	mov rf,a
 180  0008  0700     R  	mov a,_AppData[11]
 180  0009  0080     E  	mov rg,a
 180  000A  0700     E  	mov a,rf
 180  000B  0500     E  	or a,rg
 180  000C  3D0A        	sz z
 180  000D  2800     R  	jmp _L19
 182  000E              #line 182 "F:\SVNRepo\Project\BS82D20A_AOPU_5KEY\USER_PROGRAM\AppMain.c"
 182  000E  3000     R  	set _AppData[28].4
 182  000F  2800     R  	jmp _L20
 182  0010              _L19:
 186  0010              #line 186 "F:\SVNRepo\Project\BS82D20A_AOPU_5KEY\USER_PROGRAM\AppMain.c"
 186  0010  3400     R  	clr _AppData[28].4
 186  0011              _L20:
 192  0011              #line 192 "F:\SVNRepo\Project\BS82D20A_AOPU_5KEY\USER_PROGRAM\AppMain.c"
 192  0011  0700     R  	mov a,_AppData[13]
 192  0012  0080     E  	mov rd,a
 192  0013  0700     R  	mov a,_AppData[14]
 192  0014  0080     E  	mov re,a
文件：AppMain.c    编译器版本 HGASM 0202 页次6

 192  0015  0700     E  	mov a,rd
 192  0016  0500     E  	or a,re
 192  0017  3D0A        	sz z
 192  0018  2800     R  	jmp _L21
 194  0019              #line 194 "F:\SVNRepo\Project\BS82D20A_AOPU_5KEY\USER_PROGRAM\AppMain.c"
 194  0019  3000     R  	set _AppData[28].2
 194  001A  2800     R  	jmp _L22
 194  001B              _L21:
 198  001B              #line 198 "F:\SVNRepo\Project\BS82D20A_AOPU_5KEY\USER_PROGRAM\AppMain.c"
 198  001B  3400     R  	clr _AppData[28].2
 198  001C              _L22:
 204  001C              #line 204 "F:\SVNRepo\Project\BS82D20A_AOPU_5KEY\USER_PROGRAM\AppMain.c"
 204  001C  0700     R  	mov a,_AppData[16]
 204  001D  0080     E  	mov rb,a
 204  001E  0700     R  	mov a,_AppData[17]
 204  001F  0080     E  	mov rc,a
 204  0020  0700     E  	mov a,rb
 204  0021  0500     E  	or a,rc
 204  0022  3D0A        	sz z
 204  0023  2800     R  	jmp _L23
 206  0024              #line 206 "F:\SVNRepo\Project\BS82D20A_AOPU_5KEY\USER_PROGRAM\AppMain.c"
 206  0024  3000     R  	set _AppData[28].0
 206  0025  2800     R  	jmp _L24
 206  0026              _L23:
 210  0026              #line 210 "F:\SVNRepo\Project\BS82D20A_AOPU_5KEY\USER_PROGRAM\AppMain.c"
 210  0026  3400     R  	clr _AppData[28].0
 210  0027              _L24:
 246  0027              #line 246 "F:\SVNRepo\Project\BS82D20A_AOPU_5KEY\USER_PROGRAM\AppMain.c"
 246  0027  0700     R  	mov a,_AppData[20]
 246  0028  0080     R  	mov _PeripheralSet_2[0],a
 246  0029  0700     R  	mov a,_AppData[21]
 246  002A  0080     R  	mov _PeripheralSet_2[1],a
 246  002B  0700     R  	mov a,_PeripheralSet_2[0]
 246  002C  0500     R  	or a,_PeripheralSet_2[1]
 246  002D  3D0A        	sz z
 246  002E  2800     R  	jmp _L25
 248  002F              #line 248 "F:\SVNRepo\Project\BS82D20A_AOPU_5KEY\USER_PROGRAM\AppMain.c"
 248  002F  3000     R  	set _AppData[28].6
 248  0030  2800     R  	jmp _L26
 248  0031              _L25:
 252  0031              #line 252 "F:\SVNRepo\Project\BS82D20A_AOPU_5KEY\USER_PROGRAM\AppMain.c"
 252  0031  3400     R  	clr _AppData[28].6
 252  0032              _L26:
 259  0032              #line 259 "F:\SVNRepo\Project\BS82D20A_AOPU_5KEY\USER_PROGRAM\AppMain.c"
 259  0032  0700     E  	mov a,rf
 259  0033  0500     E  	or a,rg
 259  0034  390A        	snz z
 259  0035  2800     R  	jmp _L27
 259  0036  0700     E  	mov a,rd
 259  0037  0500     E  	or a,re
 259  0038  390A        	snz z
 259  0039  2800     R  	jmp _L27
 260  003A              #line 260 "F:\SVNRepo\Project\BS82D20A_AOPU_5KEY\USER_PROGRAM\AppMain.c"
 260  003A  0700     E  	mov a,rb
 260  003B  0500     E  	or a,rc
 260  003C  390A        	snz z
 260  003D  2800     R  	jmp _L27
 261  003E              #line 261 "F:\SVNRepo\Project\BS82D20A_AOPU_5KEY\USER_PROGRAM\AppMain.c"
 261  003E  0700     R  	mov a,_PeripheralSet_2[0]
 261  003F  0500     R  	or a,_PeripheralSet_2[1]
文件：AppMain.c    编译器版本 HGASM 0202 页次7

 261  0040  390A        	snz z
 261  0041  2800     R  	jmp _L27
 261  0042              _L29:
 264  0042              #line 264 "F:\SVNRepo\Project\BS82D20A_AOPU_5KEY\USER_PROGRAM\AppMain.c"
 264  0042  2000     E  	call _LED_STANDBY_ON
 264  0043  2800     R  	jmp _L28
 264  0044              _L27:
 268  0044              #line 268 "F:\SVNRepo\Project\BS82D20A_AOPU_5KEY\USER_PROGRAM\AppMain.c"
 268  0044  1080     R  	sz _AppData[23]
 268  0045  2800     R  	jmp _L29
 274  0046              #line 274 "F:\SVNRepo\Project\BS82D20A_AOPU_5KEY\USER_PROGRAM\AppMain.c"
 274  0046  2000     E  	call _LED_STANDBY_OFF
 274  0047              _L28:
 278  0047              #line 278 "F:\SVNRepo\Project\BS82D20A_AOPU_5KEY\USER_PROGRAM\AppMain.c"
 278  0047  0700     R  	mov a,_AppData[28]
 278  0048  0E01        	and a,1
 278  0049  0080     E  	mov ra,a
 278  004A  1F00     E  	clr rb
 278  004B  3C00     R  	sz _AppData[28].1
 278  004C  1480     E  	inc rb
 278  004D  0700     E  	mov a,rb
 278  004E  0200     E  	sub a,ra
 278  004F  3D0A        	sz z
 278  0050  2800     R  	jmp _L30
 280  0051              #line 280 "F:\SVNRepo\Project\BS82D20A_AOPU_5KEY\USER_PROGRAM\AppMain.c"
 280  0051  0700     E  	mov a,ra
 280  0052  0380     E  	addm a,ra
 280  0053  3400     R  	clr _AppData[28].1
 280  0054  0700     E  	mov a,ra
 280  0055  0580     R  	orm a,_AppData[28]
 281  0056              #line 281 "F:\SVNRepo\Project\BS82D20A_AOPU_5KEY\USER_PROGRAM\AppMain.c"
 281  0056  3800     R  	snz _AppData[28].0
 281  0057  2800     R  	jmp _L31
 283  0058              #line 283 "F:\SVNRepo\Project\BS82D20A_AOPU_5KEY\USER_PROGRAM\AppMain.c"
 283  0058  2000     R  	call _PeripheralSetAirHeating
 283  0059  2800     R  	jmp _L30
 283  005A              _L31:
 287  005A              #line 287 "F:\SVNRepo\Project\BS82D20A_AOPU_5KEY\USER_PROGRAM\AppMain.c"
 287  005A  2000     R  	call _PeripheralUnsetAirHeating
 287  005B              _L30:
 291  005B              #line 291 "F:\SVNRepo\Project\BS82D20A_AOPU_5KEY\USER_PROGRAM\AppMain.c"
 291  005B  1F00     E  	clr ra
 291  005C  3C00     R  	sz _AppData[28].2
 291  005D  1480     E  	inc ra
 291  005E  1F00     E  	clr rb
 291  005F  3C00     R  	sz _AppData[28].3
 291  0060  1480     E  	inc rb
 291  0061  0700     E  	mov a,rb
 291  0062  0200     E  	sub a,ra
 291  0063  3D0A        	sz z
 291  0064  2800     R  	jmp _L32
 293  0065              #line 293 "F:\SVNRepo\Project\BS82D20A_AOPU_5KEY\USER_PROGRAM\AppMain.c"
 293  0065  1100     E  	swapa ra
 293  0066  1985        	rr acc
 293  0067  0EF8        	and a,0f8h
 293  0068  0080     E  	mov ra,a
 293  0069  3400     R  	clr _AppData[28].3
 293  006A  0700     E  	mov a,ra
 293  006B  0580     R  	orm a,_AppData[28]
 294  006C              #line 294 "F:\SVNRepo\Project\BS82D20A_AOPU_5KEY\USER_PROGRAM\AppMain.c"
文件：AppMain.c    编译器版本 HGASM 0202 页次8

 294  006C  3800     R  	snz _AppData[28].2
 294  006D  2800     R  	jmp _L33
 296  006E              #line 296 "F:\SVNRepo\Project\BS82D20A_AOPU_5KEY\USER_PROGRAM\AppMain.c"
 296  006E  2000     R  	call _PeripheralSetAirChange
 296  006F  2800     R  	jmp _L32
 296  0070              _L33:
 300  0070              #line 300 "F:\SVNRepo\Project\BS82D20A_AOPU_5KEY\USER_PROGRAM\AppMain.c"
 300  0070  2000     R  	call _PeripheralUnsetAirChange
 300  0071              _L32:
 305  0071              #line 305 "F:\SVNRepo\Project\BS82D20A_AOPU_5KEY\USER_PROGRAM\AppMain.c"
 305  0071  1F00     E  	clr ra
 305  0072  3C00     R  	sz _AppData[28].4
 305  0073  1480     E  	inc ra
 305  0074  1F00     E  	clr rb
 305  0075  3C00     R  	sz _AppData[28].5
 305  0076  1480     E  	inc rb
 305  0077  0700     E  	mov a,rb
 305  0078  0200     E  	sub a,ra
 305  0079  3D0A        	sz z
 305  007A  2800     R  	jmp _L34
 307  007B              #line 307 "F:\SVNRepo\Project\BS82D20A_AOPU_5KEY\USER_PROGRAM\AppMain.c"
 307  007B  1100     E  	swapa ra
 307  007C  1885        	rl acc
 307  007D  0EE0        	and a,0e0h
 307  007E  0080     E  	mov ra,a
 307  007F  3400     R  	clr _AppData[28].5
 307  0080  0700     E  	mov a,ra
 307  0081  0580     R  	orm a,_AppData[28]
 308  0082              #line 308 "F:\SVNRepo\Project\BS82D20A_AOPU_5KEY\USER_PROGRAM\AppMain.c"
 308  0082  3800     R  	snz _AppData[28].4
 308  0083  2800     R  	jmp _L35
 310  0084              #line 310 "F:\SVNRepo\Project\BS82D20A_AOPU_5KEY\USER_PROGRAM\AppMain.c"
 310  0084  2000     R  	call _PeripheralSetAirBlow
 310  0085  2800     R  	jmp _L34
 310  0086              _L35:
 314  0086              #line 314 "F:\SVNRepo\Project\BS82D20A_AOPU_5KEY\USER_PROGRAM\AppMain.c"
 314  0086  2000     R  	call _PeripheralUnsetAirBlow
 314  0087              _L34:
 318  0087              #line 318 "F:\SVNRepo\Project\BS82D20A_AOPU_5KEY\USER_PROGRAM\AppMain.c"
 318  0087  1F00     E  	clr ra
 318  0088  3C00     R  	sz _AppData[28].6
 318  0089  1480     E  	inc ra
 318  008A  1800     R  	rla _AppData[28]
 318  008B  0E01        	and a,1
 318  008C  0080     E  	mov rb,a
 318  008D  0700     E  	mov a,rb
 318  008E  0200     E  	sub a,ra
 318  008F  3D0A        	sz z
 318  0090  2800     R  	jmp _L15
 320  0091              #line 320 "F:\SVNRepo\Project\BS82D20A_AOPU_5KEY\USER_PROGRAM\AppMain.c"
 320  0091  1B80     E  	rrc ra
 320  0092  1F00     E  	clr ra
 320  0093  1B80     E  	rrc ra
 320  0094  3400     R  	clr _AppData[28].7
 320  0095  0700     E  	mov a,ra
 320  0096  0580     R  	orm a,_AppData[28]
 321  0097              #line 321 "F:\SVNRepo\Project\BS82D20A_AOPU_5KEY\USER_PROGRAM\AppMain.c"
 321  0097  3800     R  	snz _AppData[28].6
 321  0098  2800     R  	jmp _L36
 323  0099              #line 323 "F:\SVNRepo\Project\BS82D20A_AOPU_5KEY\USER_PROGRAM\AppMain.c"
文件：AppMain.c    编译器版本 HGASM 0202 页次9

 323  0099  2000     R  	call _PeripheralSetLightHeating
 323  009A  2800     R  	jmp _L15
 323  009B              _L36:
 327  009B              #line 327 "F:\SVNRepo\Project\BS82D20A_AOPU_5KEY\USER_PROGRAM\AppMain.c"
 327  009B  2000     R  	call _PeripheralUnsetLightHeating
 327  009C              _L15:
 327  009C  0003        	ret
 327  009D              _PeripheralSet endp
 327  009D              #line 327 "F:\SVNRepo\Project\BS82D20A_AOPU_5KEY\USER_PROGRAM\AppMain.c"
 327  009D              #pragma debug scope 1 1
 327  009D              public _AppTimerRun
 327  009D              #pragma debug scope 12 1
 340  009D              #line 340 "F:\SVNRepo\Project\BS82D20A_AOPU_5KEY\USER_PROGRAM\AppMain.c"
 340  0000              _AppTimerRun .section 'code'
 340  0000              _AppTimerRun proc
 355  0000              #line 355 "F:\SVNRepo\Project\BS82D20A_AOPU_5KEY\USER_PROGRAM\AppMain.c"
 355  0000  0700     R  	mov a,_AppData[10]
 355  0001  0080     E  	mov rb,a
 355  0002  0700     R  	mov a,_AppData[11]
 355  0003  0080     E  	mov rc,a
 355  0004  0700     E  	mov a,rb
 355  0005  0500     E  	or a,rc
 355  0006  3D0A        	sz z
 355  0007  2800     R  	jmp _L38
 357  0008              #line 357 "F:\SVNRepo\Project\BS82D20A_AOPU_5KEY\USER_PROGRAM\AppMain.c"
 357  0008  0FFF        	mov a,255
 357  0009  0300     E  	add a,rb
 357  000A  0080     R  	mov _AppData[10],a
 357  000B  0FFF        	mov a,255
 357  000C  1300     E  	adc a,rc
 357  000D  0080     R  	mov _AppData[11],a
 357  000E              _L38:
 359  000E              #line 359 "F:\SVNRepo\Project\BS82D20A_AOPU_5KEY\USER_PROGRAM\AppMain.c"
 359  000E  0700     R  	mov a,_AppData[13]
 359  000F  0080     E  	mov rb,a
 359  0010  0700     R  	mov a,_AppData[14]
 359  0011  0080     E  	mov rc,a
 359  0012  0700     E  	mov a,rb
 359  0013  0500     E  	or a,rc
 359  0014  3D0A        	sz z
 359  0015  2800     R  	jmp _L39
 361  0016              #line 361 "F:\SVNRepo\Project\BS82D20A_AOPU_5KEY\USER_PROGRAM\AppMain.c"
 361  0016  0FFF        	mov a,255
 361  0017  0300     E  	add a,rb
 361  0018  0080     R  	mov _AppData[13],a
 361  0019  0FFF        	mov a,255
 361  001A  1300     E  	adc a,rc
 361  001B  0080     R  	mov _AppData[14],a
 361  001C              _L39:
 363  001C              #line 363 "F:\SVNRepo\Project\BS82D20A_AOPU_5KEY\USER_PROGRAM\AppMain.c"
 363  001C  0700     R  	mov a,_AppData[16]
 363  001D  0080     E  	mov rb,a
 363  001E  0700     R  	mov a,_AppData[17]
 363  001F  0080     E  	mov rc,a
 363  0020  0700     E  	mov a,rb
 363  0021  0500     E  	or a,rc
 363  0022  3D0A        	sz z
 363  0023  2800     R  	jmp _L41
 365  0024              #line 365 "F:\SVNRepo\Project\BS82D20A_AOPU_5KEY\USER_PROGRAM\AppMain.c"
 365  0024  0FFF        	mov a,255
文件：AppMain.c    编译器版本 HGASM 0202 页次10

 365  0025  0380     E  	addm a,rb
 365  0026  0FFF        	mov a,255
 365  0027  1380     E  	adcm a,rc
 365  0028  0700     E  	mov a,rb
 365  0029  0080     R  	mov _AppData[16],a
 365  002A  0700     E  	mov a,rc
 365  002B  0080     R  	mov _AppData[17],a
 365  002C  0700     E  	mov a,rb
 365  002D  0500     E  	or a,rc
 365  002E  390A        	snz z
 365  002F  2800     R  	jmp _L41
 367  0030              #line 367 "F:\SVNRepo\Project\BS82D20A_AOPU_5KEY\USER_PROGRAM\AppMain.c"
 367  0030  0F1E        	mov a,30
 367  0031  0080     R  	mov _AppData[19],a
 367  0032              _L41:
 371  0032              #line 371 "F:\SVNRepo\Project\BS82D20A_AOPU_5KEY\USER_PROGRAM\AppMain.c"
 371  0032  0700     R  	mov a,_AppData[20]
 371  0033  0080     E  	mov rb,a
 371  0034  0700     R  	mov a,_AppData[21]
 371  0035  0080     E  	mov rc,a
 371  0036  0700     E  	mov a,rb
 371  0037  0500     E  	or a,rc
 371  0038  3D0A        	sz z
 371  0039  2800     R  	jmp _L43
 373  003A              #line 373 "F:\SVNRepo\Project\BS82D20A_AOPU_5KEY\USER_PROGRAM\AppMain.c"
 373  003A  0FFF        	mov a,255
 373  003B  0300     E  	add a,rb
 373  003C  0080     R  	mov _AppData[20],a
 373  003D  0FFF        	mov a,255
 373  003E  1300     E  	adc a,rc
 373  003F  0080     R  	mov _AppData[21],a
 373  0040              _L43:
 376  0040              #line 376 "F:\SVNRepo\Project\BS82D20A_AOPU_5KEY\USER_PROGRAM\AppMain.c"
 376  0040  0700     R  	mov a,_AppData[23]
 376  0041  0080     E  	mov ra,a
 376  0042  1080     E  	sz ra
 376  0043  2800     R  	jmp _LI1
 376  0044  2800     R  	jmp _L44
 376  0045              _LI1:
 378  0045              #line 378 "F:\SVNRepo\Project\BS82D20A_AOPU_5KEY\USER_PROGRAM\AppMain.c"
 378  0045  1500     E  	deca ra
 378  0046  0080     R  	mov _AppData[23],a
 378  0047              _L44:
 381  0047              #line 381 "F:\SVNRepo\Project\BS82D20A_AOPU_5KEY\USER_PROGRAM\AppMain.c"
 381  0047  0700     R  	mov a,_AppData[12]
 381  0048  0080     E  	mov ra,a
 381  0049  1080     E  	sz ra
 381  004A  2800     R  	jmp _LI2
 381  004B  2800     R  	jmp _L46
 381  004C              _LI2:
 383  004C              #line 383 "F:\SVNRepo\Project\BS82D20A_AOPU_5KEY\USER_PROGRAM\AppMain.c"
 383  004C  1580     E  	dec ra
 383  004D  0700     E  	mov a,ra
 383  004E  0080     R  	mov _AppData[12],a
 383  004F  1080     E  	sz ra
 383  0050  2800     R  	jmp _L46
 385  0051              #line 385 "F:\SVNRepo\Project\BS82D20A_AOPU_5KEY\USER_PROGRAM\AppMain.c"
 385  0051  3141        	set [65].2
 385  0052              _L46:
 388  0052              #line 388 "F:\SVNRepo\Project\BS82D20A_AOPU_5KEY\USER_PROGRAM\AppMain.c"
文件：AppMain.c    编译器版本 HGASM 0202 页次11

 388  0052  0700     R  	mov a,_AppData[15]
 388  0053  0080     E  	mov ra,a
 388  0054  1080     E  	sz ra
 388  0055  2800     R  	jmp _LI3
 388  0056  2800     R  	jmp _L49
 388  0057              _LI3:
 390  0057              #line 390 "F:\SVNRepo\Project\BS82D20A_AOPU_5KEY\USER_PROGRAM\AppMain.c"
 390  0057  1580     E  	dec ra
 390  0058  0700     E  	mov a,ra
 390  0059  0080     R  	mov _AppData[15],a
 390  005A  1080     E  	sz ra
 390  005B  2800     R  	jmp _L49
 392  005C              #line 392 "F:\SVNRepo\Project\BS82D20A_AOPU_5KEY\USER_PROGRAM\AppMain.c"
 392  005C  31C1        	set [65].3
 392  005D              _L49:
 396  005D              #line 396 "F:\SVNRepo\Project\BS82D20A_AOPU_5KEY\USER_PROGRAM\AppMain.c"
 396  005D  0700     R  	mov a,_AppData[18]
 396  005E  0080     E  	mov ra,a
 396  005F  1080     E  	sz ra
 396  0060  2800     R  	jmp _LI4
 396  0061  2800     R  	jmp _L52
 396  0062              _LI4:
 398  0062              #line 398 "F:\SVNRepo\Project\BS82D20A_AOPU_5KEY\USER_PROGRAM\AppMain.c"
 398  0062  1580     E  	dec ra
 398  0063  0700     E  	mov a,ra
 398  0064  0080     R  	mov _AppData[18],a
 398  0065  1080     E  	sz ra
 398  0066  2800     R  	jmp _L52
 400  0067              #line 400 "F:\SVNRepo\Project\BS82D20A_AOPU_5KEY\USER_PROGRAM\AppMain.c"
 400  0067  33A0        	set [32].7
 400  0068              _L52:
 404  0068              #line 404 "F:\SVNRepo\Project\BS82D20A_AOPU_5KEY\USER_PROGRAM\AppMain.c"
 404  0068  0700     R  	mov a,_AppData[19]
 404  0069  0080     E  	mov ra,a
 404  006A  1080     E  	sz ra
 404  006B  2800     R  	jmp _LI5
 404  006C  2800     R  	jmp _L37
 404  006D              _LI5:
 406  006D              #line 406 "F:\SVNRepo\Project\BS82D20A_AOPU_5KEY\USER_PROGRAM\AppMain.c"
 406  006D  1580     E  	dec ra
 406  006E  0700     E  	mov a,ra
 406  006F  0080     R  	mov _AppData[19],a
 406  0070  1080     E  	sz ra
 406  0071  2800     R  	jmp _L37
 408  0072              #line 408 "F:\SVNRepo\Project\BS82D20A_AOPU_5KEY\USER_PROGRAM\AppMain.c"
 408  0072  3541        	clr [65].2
 408  0073              _L37:
 408  0073  0003        	ret
 408  0074              _AppTimerRun endp
 408  0074              #line 408 "F:\SVNRepo\Project\BS82D20A_AOPU_5KEY\USER_PROGRAM\AppMain.c"
 408  0074              #pragma debug scope 1 1
 408  0074              public _BuzzDeal
 408  0074              #pragma debug scope 13 1
 415  0074              #line 415 "F:\SVNRepo\Project\BS82D20A_AOPU_5KEY\USER_PROGRAM\AppMain.c"
 415  0000              _BuzzDeal .section 'code'
 415  0000              _BuzzDeal proc
 415  0000              public _BuzzDeal_2
 415  0000  0002[           local _BuzzDeal_2 db 2 dup(?)	; 2,0
            00
            ]
文件：AppMain.c    编译器版本 HGASM 0202 页次12

 415  0002              #pragma debug variable 10 13 _BuzzDeal_2+0 "key"
 416  0002              #line 416 "F:\SVNRepo\Project\BS82D20A_AOPU_5KEY\USER_PROGRAM\AppMain.c"
 416  0000  0700     R  	mov a,_BuzzDeal_2[0]
 416  0001  0C01        	xor a,1
 416  0002  0500     R  	or a,_BuzzDeal_2[1]
 416  0003  3D0A        	sz z
 416  0004  2800     R  	jmp _L71
 416  0005              #line 416 "F:\SVNRepo\Project\BS82D20A_AOPU_5KEY\USER_PROGRAM\AppMain.c"
 416  0005  0700     R  	mov a,_BuzzDeal_2[0]
 416  0006  0C02        	xor a,2
 416  0007  0500     R  	or a,_BuzzDeal_2[1]
 416  0008  3D0A        	sz z
 416  0009  2800     R  	jmp _L71
 416  000A  0700     R  	mov a,_BuzzDeal_2[0]
 416  000B  0C04        	xor a,4
 416  000C  0500     R  	or a,_BuzzDeal_2[1]
 416  000D  3D0A        	sz z
 416  000E  2800     R  	jmp _L71
 416  000F  0700     R  	mov a,_BuzzDeal_2[0]
 416  0010  0C08        	xor a,8
 416  0011  0500     R  	or a,_BuzzDeal_2[1]
 416  0012  3D0A        	sz z
 416  0013  2800     R  	jmp _L71
 416  0014  0700     R  	mov a,_BuzzDeal_2[0]
 416  0015  0C10        	xor a,16
 416  0016  0500     R  	or a,_BuzzDeal_2[1]
 416  0017  390A        	snz z
 416  0018  2800     R  	jmp _L69
 416  0019              _L71:
 423  0019              #line 423 "F:\SVNRepo\Project\BS82D20A_AOPU_5KEY\USER_PROGRAM\AppMain.c"
 423  0019  0F0F        	mov a,15
 423  001A  2000     E  	call _BuzzMs
 423  001B              _L69:
 423  001B  0003        	ret
 423  001C              _BuzzDeal endp
 423  001C              #line 423 "F:\SVNRepo\Project\BS82D20A_AOPU_5KEY\USER_PROGRAM\AppMain.c"
 423  001C              #pragma debug scope 1 1
 423  001C              public _AppTask
 423  001C              #pragma debug scope 14 1
 433  001C              #line 433 "F:\SVNRepo\Project\BS82D20A_AOPU_5KEY\USER_PROGRAM\AppMain.c"
 433  0000              _AppTask .section 'code'
 433  0000              _AppTask proc
 433  0000  0002[           local _AppTask_2 db 2 dup(?)	; 0,2
            00
            ]
 433  0002              #pragma debug variable 10 14 _AppTask_2+0 "key"
 436  0002              #line 436 "F:\SVNRepo\Project\BS82D20A_AOPU_5KEY\USER_PROGRAM\AppMain.c"
 436  0000  0700     R  	mov a,_AppData[0]
 436  0001  0A00        	sub a,0
 436  0002  3D0A        	sz z
 436  0003  2800     R  	jmp _L74
 436  0004  0A01        	sub a,(1)-(0)
 436  0005  3D0A        	sz z
 436  0006  2800     R  	jmp _L75
 436  0007              #line 436 "F:\SVNRepo\Project\BS82D20A_AOPU_5KEY\USER_PROGRAM\AppMain.c"
 436  0007  0700     R  	mov a,_AppData[0]
 436  0008  0A02        	sub a,2
 436  0009  3D0A        	sz z
 436  000A  2800     R  	jmp _L76
 436  000B  0A01        	sub a,(3)-(2)
文件：AppMain.c    编译器版本 HGASM 0202 页次13

 436  000C  3D0A        	sz z
 436  000D  2800     R  	jmp _L77
 436  000E  0700     R  	mov a,_AppData[0]
 436  000F  0A04        	sub a,4
 436  0010  3D0A        	sz z
 436  0011  2800     R  	jmp _L78
 436  0012  0A01        	sub a,(5)-(4)
 436  0013  3D0A        	sz z
 436  0014  2800     R  	jmp _L79
 436  0015  0700     R  	mov a,_AppData[0]
 436  0016  0A06        	sub a,6
 436  0017  3D0A        	sz z
 436  0018  2800     R  	jmp _L80
 436  0019  0A01        	sub a,(7)-(6)
 436  001A  3D0A        	sz z
 436  001B  2800     R  	jmp _L81
 436  001C  0700     R  	mov a,_AppData[0]
 436  001D  0A08        	sub a,8
 436  001E  390A        	snz z
 436  001F  2800     R  	jmp _L72
 436  0020  2800     R  	jmp _L134
 436  0021              _L74:
 442  0021              #line 442 "F:\SVNRepo\Project\BS82D20A_AOPU_5KEY\USER_PROGRAM\AppMain.c"
 442  0021  0F01        	mov a,1
 442  0022  0080     R  	mov _AppData[0],a
 443  0023              #line 443 "F:\SVNRepo\Project\BS82D20A_AOPU_5KEY\USER_PROGRAM\AppMain.c"
 443  0023  2000     E  	call _LedAllOn
 444  0024              #line 444 "F:\SVNRepo\Project\BS82D20A_AOPU_5KEY\USER_PROGRAM\AppMain.c"
 444  0024  0F00     R  	mov a,low (offset _AppData+8)
 444  0025  0080     E  	mov _APP_TIMER_Set_2[0],a
 444  0026  0F00     R  	mov a,high (offset _AppData+8)
 444  0027  0080     E  	mov _APP_TIMER_Set_2[1],a
 444  0028  2000     E  	call _APP_TIMER_Set
 444  0029  2800     R  	jmp _L130
 444  002A              _L75:
 472  002A              #line 472 "F:\SVNRepo\Project\BS82D20A_AOPU_5KEY\USER_PROGRAM\AppMain.c"
 472  002A  0F14        	mov a,20
 472  002B  0080     E  	mov _APP_TIMER_Expired_2[2],a
 472  002C  1F00     E  	clr _APP_TIMER_Expired_2[3]
 472  002D  0700     R  	mov a,_AppData[8]
 472  002E  0080     E  	mov _APP_TIMER_Expired_2[0],a
 472  002F  0700     R  	mov a,_AppData[9]
 472  0030  0080     E  	mov _APP_TIMER_Expired_2[1],a
 472  0031  2000     E  	call _APP_TIMER_Expired
 472  0032  0080     E  	mov ra,a
 472  0033  1080     E  	sz ra
 472  0034  2800     R  	jmp _LI6
 472  0035  2800     R  	jmp _L72
 472  0036              _LI6:
 474  0036              #line 474 "F:\SVNRepo\Project\BS82D20A_AOPU_5KEY\USER_PROGRAM\AppMain.c"
 474  0036  0F02        	mov a,2
 474  0037  0080     R  	mov _AppData[0],a
 475  0038              #line 475 "F:\SVNRepo\Project\BS82D20A_AOPU_5KEY\USER_PROGRAM\AppMain.c"
 475  0038  2000     E  	call _LedAllOff
 475  0039  2800     R  	jmp _L131
 475  003A              _L76:
 481  003A              #line 481 "F:\SVNRepo\Project\BS82D20A_AOPU_5KEY\USER_PROGRAM\AppMain.c"
 481  003A  3800     R  	snz _AppData[5].2
 481  003B  2800     R  	jmp _L84
 481  003C  3800     R  	snz _AppData[3].3
文件：AppMain.c    编译器版本 HGASM 0202 页次14

 481  003D  2800     R  	jmp _L84
 483  003E              #line 483 "F:\SVNRepo\Project\BS82D20A_AOPU_5KEY\USER_PROGRAM\AppMain.c"
 483  003E  0F14        	mov a,20
 483  003F  0080     E  	mov _APP_TIMER_Expired_2[2],a
 483  0040  1F00     E  	clr _APP_TIMER_Expired_2[3]
 483  0041  0700     R  	mov a,_AppData[8]
 483  0042  0080     E  	mov _APP_TIMER_Expired_2[0],a
 483  0043  0700     R  	mov a,_AppData[9]
 483  0044  0080     E  	mov _APP_TIMER_Expired_2[1],a
 483  0045  2000     E  	call _APP_TIMER_Expired
 483  0046  0080     E  	mov ra,a
 483  0047  1080     E  	sz ra
 483  0048  2800     R  	jmp _LI7
 483  0049  2800     R  	jmp _L72
 483  004A              _LI7:
 485  004A              #line 485 "F:\SVNRepo\Project\BS82D20A_AOPU_5KEY\USER_PROGRAM\AppMain.c"
 485  004A  0F04        	mov a,4
 485  004B  0080     R  	mov _AppData[0],a
 486  004C              #line 486 "F:\SVNRepo\Project\BS82D20A_AOPU_5KEY\USER_PROGRAM\AppMain.c"
 486  004C  0F01        	mov a,1
 486  004D  0080     R  	mov _AppData[26],a
 486  004E              _L130:
 487  004E              #line 487 "F:\SVNRepo\Project\BS82D20A_AOPU_5KEY\USER_PROGRAM\AppMain.c"
 487  004E  0F32        	mov a,50
 487  004F  2000     E  	call _BuzzMs
 487  0050  2800     R  	jmp _L72
 487  0051              _L84:
 495  0051              #line 495 "F:\SVNRepo\Project\BS82D20A_AOPU_5KEY\USER_PROGRAM\AppMain.c"
 495  0051  0F03        	mov a,3
 495  0052  0080     R  	mov _AppData[0],a
 495  0053  2800     R  	jmp _L72
 495  0054              _L77:
 509  0054              #line 509 "F:\SVNRepo\Project\BS82D20A_AOPU_5KEY\USER_PROGRAM\AppMain.c"
 509  0054  0F1E        	mov a,30
 509  0055  0080     E  	mov _APP_TIMER_Expired_2[2],a
 509  0056  1F00     E  	clr _APP_TIMER_Expired_2[3]
 509  0057  0700     R  	mov a,_AppData[8]
 509  0058  0080     E  	mov _APP_TIMER_Expired_2[0],a
 509  0059  0700     R  	mov a,_AppData[9]
 509  005A  0080     E  	mov _APP_TIMER_Expired_2[1],a
 509  005B  2000     E  	call _APP_TIMER_Expired
 509  005C  0080     E  	mov ra,a
 509  005D  1080     E  	sz ra
 509  005E  2800     R  	jmp _LI8
 509  005F  2800     R  	jmp _L86
 509  0060              _LI8:
 511  0060              #line 511 "F:\SVNRepo\Project\BS82D20A_AOPU_5KEY\USER_PROGRAM\AppMain.c"
 511  0060  0F00     R  	mov a,low (offset _AppData+8)
 511  0061  0080     E  	mov _APP_TIMER_Set_2[0],a
 511  0062  0F00     R  	mov a,high (offset _AppData+8)
 511  0063  0080     E  	mov _APP_TIMER_Set_2[1],a
 511  0064  2000     E  	call _APP_TIMER_Set
 511  0065              _L86:
 517  0065              #line 517 "F:\SVNRepo\Project\BS82D20A_AOPU_5KEY\USER_PROGRAM\AppMain.c"
 517  0065  2000     E  	call _GetKeyMsg
 517  0066  0700     E  	mov a,ra
 517  0067  0080     R  	mov _AppTask_2[0],a
 517  0068  0700     E  	mov a,rb
 517  0069  0080     R  	mov _AppTask_2[1],a
 518  006A              #line 518 "F:\SVNRepo\Project\BS82D20A_AOPU_5KEY\USER_PROGRAM\AppMain.c"
文件：AppMain.c    编译器版本 HGASM 0202 页次15

 518  006A  0700     E  	mov a,ra
 518  006B  0600     E  	and a,rb
 518  006C  0B01        	add a,1
 518  006D  3C0A        	sz c
 518  006E  2800     R  	jmp _L72
 522  006F              #line 522 "F:\SVNRepo\Project\BS82D20A_AOPU_5KEY\USER_PROGRAM\AppMain.c"
 522  006F  0700     R  	mov a,_AppTask_2[0]
 522  0070  0080     R  	mov _BuzzDeal_2[0],a
 522  0071  0700     R  	mov a,_AppTask_2[1]
 522  0072  0080     R  	mov _BuzzDeal_2[1],a
 522  0073  2000     R  	call _BuzzDeal
 523  0074              #line 523 "F:\SVNRepo\Project\BS82D20A_AOPU_5KEY\USER_PROGRAM\AppMain.c"
 523  0074  0700     R  	mov a,_AppTask_2[0]
 523  0075  0C01        	xor a,1
 523  0076  0500     R  	or a,_AppTask_2[1]
 523  0077  3D0A        	sz z
 523  0078  2800     R  	jmp _L87
 523  0079  0700     R  	mov a,_AppTask_2[0]
 523  007A  0C02        	xor a,2
 523  007B  0500     R  	or a,_AppTask_2[1]
 523  007C  3D0A        	sz z
 523  007D  2800     R  	jmp _L88
 523  007E  0700     R  	mov a,_AppTask_2[0]
 523  007F  0C04        	xor a,4
 523  0080  0500     R  	or a,_AppTask_2[1]
 523  0081  3D0A        	sz z
 523  0082  2800     R  	jmp _L89
 523  0083  0700     R  	mov a,_AppTask_2[0]
 523  0084  0C08        	xor a,8
 523  0085  0500     R  	or a,_AppTask_2[1]
 523  0086  3D0A        	sz z
 523  0087  2800     R  	jmp _L90
 523  0088  0700     R  	mov a,_AppTask_2[0]
 523  0089  0C10        	xor a,16
 523  008A  0500     R  	or a,_AppTask_2[1]
 523  008B  390A        	snz z
 523  008C  2800     R  	jmp _L72
 523  008D  2800     R  	jmp _L135
 523  008E              _L90:
 526  008E              #line 526 "F:\SVNRepo\Project\BS82D20A_AOPU_5KEY\USER_PROGRAM\AppMain.c"
 526  008E  0700     R  	mov a,_AppData[10]
 526  008F  0500     R  	or a,_AppData[11]
 526  0090  3D0A        	sz z
 526  0091  2800     R  	jmp _L92
 528  0092              #line 528 "F:\SVNRepo\Project\BS82D20A_AOPU_5KEY\USER_PROGRAM\AppMain.c"
 528  0092  1F00     R  	clr _AppData[10]
 528  0093  1F00     R  	clr _AppData[11]
 529  0094              #line 529 "F:\SVNRepo\Project\BS82D20A_AOPU_5KEY\USER_PROGRAM\AppMain.c"
 529  0094  1F00     R  	clr _AppData[12]
 529  0095  2800     R  	jmp _L72
 529  0096              _L92:
 533  0096              #line 533 "F:\SVNRepo\Project\BS82D20A_AOPU_5KEY\USER_PROGRAM\AppMain.c"
 533  0096  1F00     R  	clr _AppData[23]
 534  0097              #line 534 "F:\SVNRepo\Project\BS82D20A_AOPU_5KEY\USER_PROGRAM\AppMain.c"
 534  0097  0F08        	mov a,8
 534  0098  0080     R  	mov _AppData[10],a
 534  0099  0F07        	mov a,7
 534  009A  0080     R  	mov _AppData[11],a
 536  009B              #line 536 "F:\SVNRepo\Project\BS82D20A_AOPU_5KEY\USER_PROGRAM\AppMain.c"
 536  009B  1F00     R  	clr _AppData[18]
文件：AppMain.c    编译器版本 HGASM 0202 页次16

 537  009C              #line 537 "F:\SVNRepo\Project\BS82D20A_AOPU_5KEY\USER_PROGRAM\AppMain.c"
 537  009C  1F00     R  	clr _AppData[19]
 538  009D              #line 538 "F:\SVNRepo\Project\BS82D20A_AOPU_5KEY\USER_PROGRAM\AppMain.c"
 538  009D  1F00     R  	clr _AppData[16]
 538  009E  1F00     R  	clr _AppData[17]
 539  009F              #line 539 "F:\SVNRepo\Project\BS82D20A_AOPU_5KEY\USER_PROGRAM\AppMain.c"
 539  009F  0700     R  	mov a,_AppData[13]
 539  00A0  0500     R  	or a,_AppData[14]
 539  00A1  3D0A        	sz z
 539  00A2  2800     R  	jmp _L72
 541  00A3              #line 541 "F:\SVNRepo\Project\BS82D20A_AOPU_5KEY\USER_PROGRAM\AppMain.c"
 541  00A3  1F00     R  	clr _AppData[13]
 541  00A4  1F00     R  	clr _AppData[14]
 542  00A5              #line 542 "F:\SVNRepo\Project\BS82D20A_AOPU_5KEY\USER_PROGRAM\AppMain.c"
 542  00A5  1F00     R  	clr _AppData[15]
 543  00A6              #line 543 "F:\SVNRepo\Project\BS82D20A_AOPU_5KEY\USER_PROGRAM\AppMain.c"
 543  00A6  0F02        	mov a,2
 543  00A7  0080     R  	mov _AppData[12],a
 543  00A8  2800     R  	jmp _L72
 543  00A9              _L135:
 552  00A9              #line 552 "F:\SVNRepo\Project\BS82D20A_AOPU_5KEY\USER_PROGRAM\AppMain.c"
 552  00A9  0700     R  	mov a,_AppData[13]
 552  00AA  0500     R  	or a,_AppData[14]
 552  00AB  390A        	snz z
 552  00AC  2800     R  	jmp _L132
 559  00AD              #line 559 "F:\SVNRepo\Project\BS82D20A_AOPU_5KEY\USER_PROGRAM\AppMain.c"
 559  00AD  1F00     R  	clr _AppData[23]
 560  00AE              #line 560 "F:\SVNRepo\Project\BS82D20A_AOPU_5KEY\USER_PROGRAM\AppMain.c"
 560  00AE  0F08        	mov a,8
 560  00AF  0080     R  	mov _AppData[13],a
 560  00B0  0F07        	mov a,7
 560  00B1  0080     R  	mov _AppData[14],a
 561  00B2              #line 561 "F:\SVNRepo\Project\BS82D20A_AOPU_5KEY\USER_PROGRAM\AppMain.c"
 561  00B2  0700     R  	mov a,_AppData[10]
 561  00B3  0500     R  	or a,_AppData[11]
 561  00B4  3D0A        	sz z
 561  00B5  2800     R  	jmp _L94
 563  00B6              #line 563 "F:\SVNRepo\Project\BS82D20A_AOPU_5KEY\USER_PROGRAM\AppMain.c"
 563  00B6  1F00     R  	clr _AppData[10]
 563  00B7  1F00     R  	clr _AppData[11]
 564  00B8              #line 564 "F:\SVNRepo\Project\BS82D20A_AOPU_5KEY\USER_PROGRAM\AppMain.c"
 564  00B8  1F00     R  	clr _AppData[12]
 565  00B9              #line 565 "F:\SVNRepo\Project\BS82D20A_AOPU_5KEY\USER_PROGRAM\AppMain.c"
 565  00B9  0F02        	mov a,2
 565  00BA  0080     R  	mov _AppData[15],a
 565  00BB              _L94:
 567  00BB              #line 567 "F:\SVNRepo\Project\BS82D20A_AOPU_5KEY\USER_PROGRAM\AppMain.c"
 567  00BB  0700     R  	mov a,_AppData[16]
 567  00BC  0500     R  	or a,_AppData[17]
 567  00BD  3D0A        	sz z
 567  00BE  2800     R  	jmp _L72
 569  00BF              #line 569 "F:\SVNRepo\Project\BS82D20A_AOPU_5KEY\USER_PROGRAM\AppMain.c"
 569  00BF  1080     R  	sz _AppData[18]
 569  00C0  2800     R  	jmp _LI9
 569  00C1  2800     R  	jmp _L95
 569  00C2              _LI9:
 571  00C2              #line 571 "F:\SVNRepo\Project\BS82D20A_AOPU_5KEY\USER_PROGRAM\AppMain.c"
 571  00C2  1F00     R  	clr _AppData[18]
 571  00C3              _L95:
 573  00C3              #line 573 "F:\SVNRepo\Project\BS82D20A_AOPU_5KEY\USER_PROGRAM\AppMain.c"
文件：AppMain.c    编译器版本 HGASM 0202 页次17

 573  00C3  0F01        	mov a,1
 573  00C4  0080     R  	mov _AppData[19],a
 574  00C5              #line 574 "F:\SVNRepo\Project\BS82D20A_AOPU_5KEY\USER_PROGRAM\AppMain.c"
 574  00C5  1F00     R  	clr _AppData[16]
 574  00C6  1F00     R  	clr _AppData[17]
 575  00C7              #line 575 "F:\SVNRepo\Project\BS82D20A_AOPU_5KEY\USER_PROGRAM\AppMain.c"
 575  00C7  0F02        	mov a,2
 575  00C8  0080     R  	mov _AppData[15],a
 575  00C9  2800     R  	jmp _L72
 575  00CA              _L87:
 584  00CA              #line 584 "F:\SVNRepo\Project\BS82D20A_AOPU_5KEY\USER_PROGRAM\AppMain.c"
 584  00CA  0700     R  	mov a,_AppData[16]
 584  00CB  0500     R  	or a,_AppData[17]
 584  00CC  3D0A        	sz z
 584  00CD  2800     R  	jmp _L96
 586  00CE              #line 586 "F:\SVNRepo\Project\BS82D20A_AOPU_5KEY\USER_PROGRAM\AppMain.c"
 586  00CE  1080     R  	sz _AppData[18]
 586  00CF  2800     R  	jmp _LI10
 586  00D0  2800     R  	jmp _L97
 586  00D1              _LI10:
 588  00D1              #line 588 "F:\SVNRepo\Project\BS82D20A_AOPU_5KEY\USER_PROGRAM\AppMain.c"
 588  00D1  1F00     R  	clr _AppData[18]
 590  00D2              #line 590 "F:\SVNRepo\Project\BS82D20A_AOPU_5KEY\USER_PROGRAM\AppMain.c"
 590  00D2  0F01        	mov a,1
 590  00D3  0080     R  	mov _AppData[19],a
 590  00D4  2800     R  	jmp _L98
 590  00D5              _L97:
 594  00D5              #line 594 "F:\SVNRepo\Project\BS82D20A_AOPU_5KEY\USER_PROGRAM\AppMain.c"
 594  00D5  0F1E        	mov a,30
 594  00D6  0080     R  	mov _AppData[19],a
 594  00D7              _L98:
 596  00D7              #line 596 "F:\SVNRepo\Project\BS82D20A_AOPU_5KEY\USER_PROGRAM\AppMain.c"
 596  00D7  1F00     R  	clr _AppData[16]
 596  00D8  1F00     R  	clr _AppData[17]
 596  00D9  2800     R  	jmp _L72
 596  00DA              _L96:
 600  00DA              #line 600 "F:\SVNRepo\Project\BS82D20A_AOPU_5KEY\USER_PROGRAM\AppMain.c"
 600  00DA  1F00     R  	clr _AppData[23]
 601  00DB              #line 601 "F:\SVNRepo\Project\BS82D20A_AOPU_5KEY\USER_PROGRAM\AppMain.c"
 601  00DB  0F18        	mov a,24
 601  00DC  0080     R  	mov _AppData[16],a
 601  00DD  0F15        	mov a,21
 601  00DE  0080     R  	mov _AppData[17],a
 602  00DF              #line 602 "F:\SVNRepo\Project\BS82D20A_AOPU_5KEY\USER_PROGRAM\AppMain.c"
 602  00DF  0700     R  	mov a,_AppData[10]
 602  00E0  0500     R  	or a,_AppData[11]
 602  00E1  390A        	snz z
 602  00E2  2800     R  	jmp _L99
 604  00E3              #line 604 "F:\SVNRepo\Project\BS82D20A_AOPU_5KEY\USER_PROGRAM\AppMain.c"
 604  00E3  0F02        	mov a,2
 604  00E4  0080     R  	mov _AppData[18],a
 604  00E5              _L99:
 607  00E5              #line 607 "F:\SVNRepo\Project\BS82D20A_AOPU_5KEY\USER_PROGRAM\AppMain.c"
 607  00E5  1F00     R  	clr _AppData[10]
 607  00E6  1F00     R  	clr _AppData[11]
 608  00E7              #line 608 "F:\SVNRepo\Project\BS82D20A_AOPU_5KEY\USER_PROGRAM\AppMain.c"
 608  00E7  1F00     R  	clr _AppData[12]
 608  00E8              _L132:
 610  00E8              #line 610 "F:\SVNRepo\Project\BS82D20A_AOPU_5KEY\USER_PROGRAM\AppMain.c"
 610  00E8  1F00     R  	clr _AppData[13]
文件：AppMain.c    编译器版本 HGASM 0202 页次18

 610  00E9  1F00     R  	clr _AppData[14]
 611  00EA              #line 611 "F:\SVNRepo\Project\BS82D20A_AOPU_5KEY\USER_PROGRAM\AppMain.c"
 611  00EA  1F00     R  	clr _AppData[15]
 611  00EB  2800     R  	jmp _L72
 611  00EC              _L88:
 637  00EC              #line 637 "F:\SVNRepo\Project\BS82D20A_AOPU_5KEY\USER_PROGRAM\AppMain.c"
 637  00EC  0700     R  	mov a,_AppData[20]
 637  00ED  0500     R  	or a,_AppData[21]
 637  00EE  3D0A        	sz z
 637  00EF  2800     R  	jmp _L100
 639  00F0              #line 639 "F:\SVNRepo\Project\BS82D20A_AOPU_5KEY\USER_PROGRAM\AppMain.c"
 639  00F0  1F00     R  	clr _AppData[20]
 639  00F1  1F00     R  	clr _AppData[21]
 639  00F2  2800     R  	jmp _L72
 639  00F3              _L100:
 643  00F3              #line 643 "F:\SVNRepo\Project\BS82D20A_AOPU_5KEY\USER_PROGRAM\AppMain.c"
 643  00F3  1F00     R  	clr _AppData[23]
 644  00F4              #line 644 "F:\SVNRepo\Project\BS82D20A_AOPU_5KEY\USER_PROGRAM\AppMain.c"
 644  00F4  0F18        	mov a,24
 644  00F5  0080     R  	mov _AppData[20],a
 644  00F6  0F15        	mov a,21
 644  00F7  0080     R  	mov _AppData[21],a
 644  00F8  2800     R  	jmp _L72
 644  00F9              _L89:
 653  00F9              #line 653 "F:\SVNRepo\Project\BS82D20A_AOPU_5KEY\USER_PROGRAM\AppMain.c"
 653  00F9  1F00     R  	clr _AppData[10]
 653  00FA  1F00     R  	clr _AppData[11]
 654  00FB              #line 654 "F:\SVNRepo\Project\BS82D20A_AOPU_5KEY\USER_PROGRAM\AppMain.c"
 654  00FB  1F00     R  	clr _AppData[12]
 655  00FC              #line 655 "F:\SVNRepo\Project\BS82D20A_AOPU_5KEY\USER_PROGRAM\AppMain.c"
 655  00FC  1F00     R  	clr _AppData[13]
 655  00FD  1F00     R  	clr _AppData[14]
 656  00FE              #line 656 "F:\SVNRepo\Project\BS82D20A_AOPU_5KEY\USER_PROGRAM\AppMain.c"
 656  00FE  1F00     R  	clr _AppData[15]
 657  00FF              #line 657 "F:\SVNRepo\Project\BS82D20A_AOPU_5KEY\USER_PROGRAM\AppMain.c"
 657  00FF  0700     R  	mov a,_AppData[16]
 657  0100  0500     R  	or a,_AppData[17]
 657  0101  3D0A        	sz z
 657  0102  2800     R  	jmp _L101
 659  0103              #line 659 "F:\SVNRepo\Project\BS82D20A_AOPU_5KEY\USER_PROGRAM\AppMain.c"
 659  0103  1080     R  	sz _AppData[18]
 659  0104  2800     R  	jmp _LI11
 659  0105  2800     R  	jmp _L102
 659  0106              _LI11:
 661  0106              #line 661 "F:\SVNRepo\Project\BS82D20A_AOPU_5KEY\USER_PROGRAM\AppMain.c"
 661  0106  1F00     R  	clr _AppData[18]
 662  0107              #line 662 "F:\SVNRepo\Project\BS82D20A_AOPU_5KEY\USER_PROGRAM\AppMain.c"
 662  0107  0F01        	mov a,1
 662  0108  0080     R  	mov _AppData[19],a
 662  0109  2800     R  	jmp _L101
 662  010A              _L102:
 666  010A              #line 666 "F:\SVNRepo\Project\BS82D20A_AOPU_5KEY\USER_PROGRAM\AppMain.c"
 666  010A  0F1E        	mov a,30
 666  010B  0080     R  	mov _AppData[19],a
 666  010C              _L101:
 669  010C              #line 669 "F:\SVNRepo\Project\BS82D20A_AOPU_5KEY\USER_PROGRAM\AppMain.c"
 669  010C  1F00     R  	clr _AppData[16]
 669  010D  1F00     R  	clr _AppData[17]
 670  010E              #line 670 "F:\SVNRepo\Project\BS82D20A_AOPU_5KEY\USER_PROGRAM\AppMain.c"
 670  010E  1F00     R  	clr _AppData[20]
文件：AppMain.c    编译器版本 HGASM 0202 页次19

 670  010F  1F00     R  	clr _AppData[21]
 671  0110              #line 671 "F:\SVNRepo\Project\BS82D20A_AOPU_5KEY\USER_PROGRAM\AppMain.c"
 671  0110  0F02        	mov a,2
 671  0111  0080     R  	mov _AppData[23],a
 672  0112              #line 672 "F:\SVNRepo\Project\BS82D20A_AOPU_5KEY\USER_PROGRAM\AppMain.c"
 672  0112  2800     R  	jmp _L72
 672  0113              _L78:
 683  0113              #line 683 "F:\SVNRepo\Project\BS82D20A_AOPU_5KEY\USER_PROGRAM\AppMain.c"
 683  0113  0F05        	mov a,5
 683  0114  0080     R  	mov _AppData[0],a
 683  0115              _L131:
 684  0115              #line 684 "F:\SVNRepo\Project\BS82D20A_AOPU_5KEY\USER_PROGRAM\AppMain.c"
 684  0115  0F00     R  	mov a,low (offset _AppData+8)
 684  0116  0080     E  	mov _APP_TIMER_Set_2[0],a
 684  0117  0F00     R  	mov a,high (offset _AppData+8)
 684  0118  0080     E  	mov _APP_TIMER_Set_2[1],a
 684  0119  2000     E  	call _APP_TIMER_Set
 688  011A              #line 688 "F:\SVNRepo\Project\BS82D20A_AOPU_5KEY\USER_PROGRAM\AppMain.c"
 688  011A  2800     R  	jmp _L72
 688  011B              _L79:
 691  011B              #line 691 "F:\SVNRepo\Project\BS82D20A_AOPU_5KEY\USER_PROGRAM\AppMain.c"
 691  011B  2000     E  	call _LedShowModle
 692  011C              #line 692 "F:\SVNRepo\Project\BS82D20A_AOPU_5KEY\USER_PROGRAM\AppMain.c"
 692  011C  0F14        	mov a,20
 692  011D  0080     E  	mov _APP_TIMER_Expired_2[2],a
 692  011E  1F00     E  	clr _APP_TIMER_Expired_2[3]
 692  011F  0700     R  	mov a,_AppData[8]
 692  0120  0080     E  	mov _APP_TIMER_Expired_2[0],a
 692  0121  0700     R  	mov a,_AppData[9]
 692  0122  0080     E  	mov _APP_TIMER_Expired_2[1],a
 692  0123  2000     E  	call _APP_TIMER_Expired
 692  0124  0080     E  	mov ra,a
 692  0125  1080     E  	sz ra
 692  0126  2800     R  	jmp _LI12
 692  0127  2800     R  	jmp _L72
 692  0128              _LI12:
 694  0128              #line 694 "F:\SVNRepo\Project\BS82D20A_AOPU_5KEY\USER_PROGRAM\AppMain.c"
 694  0128  0F06        	mov a,6
 694  0129  0080     R  	mov _AppData[0],a
 694  012A  2800     R  	jmp _L133
 694  012B              _L80:
 704  012B              #line 704 "F:\SVNRepo\Project\BS82D20A_AOPU_5KEY\USER_PROGRAM\AppMain.c"
 704  012B  2000     E  	call _LedShowCycle
 704  012C  0080     E  	mov ra,a
 704  012D  1080     E  	sz ra
 704  012E  2800     R  	jmp _LI13
 704  012F  2800     R  	jmp _L72
 704  0130              _LI13:
 706  0130              #line 706 "F:\SVNRepo\Project\BS82D20A_AOPU_5KEY\USER_PROGRAM\AppMain.c"
 706  0130  0F07        	mov a,7
 706  0131  0080     R  	mov _AppData[0],a
 706  0132              _L133:
 707  0132              #line 707 "F:\SVNRepo\Project\BS82D20A_AOPU_5KEY\USER_PROGRAM\AppMain.c"
 707  0132  0F00     R  	mov a,low (offset _AppData+8)
 707  0133  0080     E  	mov _APP_TIMER_Set_2[0],a
 707  0134  0F00     R  	mov a,high (offset _AppData+8)
 707  0135  0080     E  	mov _APP_TIMER_Set_2[1],a
 707  0136  2000     E  	call _APP_TIMER_Set
 708  0137              #line 708 "F:\SVNRepo\Project\BS82D20A_AOPU_5KEY\USER_PROGRAM\AppMain.c"
 708  0137  2000     E  	call _LedAllOff
文件：AppMain.c    编译器版本 HGASM 0202 页次20

 708  0138  2800     R  	jmp _L72
 708  0139              _L81:
 716  0139              #line 716 "F:\SVNRepo\Project\BS82D20A_AOPU_5KEY\USER_PROGRAM\AppMain.c"
 716  0139  2000     E  	call _JKShowCycle
 716  013A  0080     E  	mov ra,a
 716  013B  1080     E  	sz ra
 716  013C  2800     R  	jmp _LI14
 716  013D  2800     R  	jmp _L72
 716  013E              _LI14:
 718  013E              #line 718 "F:\SVNRepo\Project\BS82D20A_AOPU_5KEY\USER_PROGRAM\AppMain.c"
 718  013E  0F08        	mov a,8
 718  013F  0080     R  	mov _AppData[0],a
 719  0140              #line 719 "F:\SVNRepo\Project\BS82D20A_AOPU_5KEY\USER_PROGRAM\AppMain.c"
 719  0140  0F00     R  	mov a,low (offset _AppData+8)
 719  0141  0080     E  	mov _APP_TIMER_Set_2[0],a
 719  0142  0F00     R  	mov a,high (offset _AppData+8)
 719  0143  0080     E  	mov _APP_TIMER_Set_2[1],a
 719  0144  2000     E  	call _APP_TIMER_Set
 720  0145              #line 720 "F:\SVNRepo\Project\BS82D20A_AOPU_5KEY\USER_PROGRAM\AppMain.c"
 720  0145  2000     E  	call _LedAllOff
 721  0146              #line 721 "F:\SVNRepo\Project\BS82D20A_AOPU_5KEY\USER_PROGRAM\AppMain.c"
 721  0146  1F00     R  	clr _AppData[24]
 721  0147  2800     R  	jmp _L72
 721  0148              _L134:
 729  0148              #line 729 "F:\SVNRepo\Project\BS82D20A_AOPU_5KEY\USER_PROGRAM\AppMain.c"
 729  0148  2000     E  	call _KeyShowCycle
 729  0149  0080     E  	mov ra,a
 729  014A  1080     E  	sz ra
 729  014B  2800     R  	jmp _LI15
 729  014C  2800     R  	jmp _L72
 729  014D              _LI15:
 731  014D              #line 731 "F:\SVNRepo\Project\BS82D20A_AOPU_5KEY\USER_PROGRAM\AppMain.c"
 731  014D  0F03        	mov a,3
 731  014E  0080     R  	mov _AppData[0],a
 732  014F              #line 732 "F:\SVNRepo\Project\BS82D20A_AOPU_5KEY\USER_PROGRAM\AppMain.c"
 732  014F  1F00     R  	clr _AppData[24]
 733  0150              #line 733 "F:\SVNRepo\Project\BS82D20A_AOPU_5KEY\USER_PROGRAM\AppMain.c"
 733  0150  1F00     R  	clr _AppData[26]
 733  0151              _L72:
 733  0151  0003        	ret
 733  0152              _AppTask endp
 733  0152              #line 733 "F:\SVNRepo\Project\BS82D20A_AOPU_5KEY\USER_PROGRAM\AppMain.c"
 733  0152              #pragma debug scope 1 1
   5  0152              #line 5 "F:\SVNRepo\Project\BS82D20A_AOPU_5KEY\USER_PROGRAM\AppMain.c"
   5  0152              public _AppData
   5  0000              @HCCINIT0 .section 'data'
   5  0000  001D[       _AppData	db 29 dup(0)
            00
            ]
   5  001D              #pragma debug struct_end
   5  001D              #pragma debug struct_end
   5  001D              #pragma debug variable 42 1 _AppData "AppData"
   5  001D              
   5  0000              @HCCINIT .section 'data'
   5  0000              #pragma debug struct_end
   5  0000              #pragma debug struct_end
   5  0000              #pragma debug union_end
   5  0000              #pragma debug union_end
   5  0000              #pragma debug variable 44 1 ___pb "__pb" 1
   5  0000              #pragma debug struct_end
文件：AppMain.c    编译器版本 HGASM 0202 页次21

   5  0000              #pragma debug struct_end
   5  0000              #pragma debug union_end
   5  0000              #pragma debug union_end
   5  0000              #pragma debug variable 46 1 ___pc "__pc" 1
   5  0000              #pragma debug struct_end
   5  0000              #pragma debug struct_end
   5  0000              #pragma debug union_end
   5  0000              #pragma debug union_end
   5  0000              #pragma debug variable 48 1 ___pd "__pd" 1
   5  0000              extern _LedInit:near
   5  0000              extern _KeyInit:near
   5  0000              extern _TimerInit:near
   5  0000              extern _PTM0AInit:near
   5  0000              extern _UartInitial:near
   5  0000              extern _LED_STANDBY_OFF:near
   5  0000              extern _LED_STANDBY_ON:near
   5  0000              extern _BuzzMs:near
   5  0000              extern _LedAllOn:near
   5  0000              extern _APP_TIMER_Set_2:byte
   5  0000              extern _APP_TIMER_Set:near
   5  0000              extern _APP_TIMER_Expired_2:byte
   5  0000              extern _APP_TIMER_Expired:near
   5  0000              extern _LedAllOff:near
   5  0000              extern _GetKeyMsg:near
   5  0000              extern _LedShowModle:near
   5  0000              extern _LedShowCycle:near
   5  0000              extern _JKShowCycle:near
   5  0000              extern _KeyShowCycle:near
   5  0000              
   5  0000              ; 
   5  0000              ; Generated by holtek-gcc v3.18, Thu Aug 02 09:03:51 2018
   5  0000              ; Rebuild 126
   5  0000              ; end of file


        0 Errors, 0