文件：led.c        编译器版本 HGASM 0202 页次1


   1  0000              ; Generated by holtek-gcc v3.18, Thu Aug 02 09:03:51 2018
   2  0000              ; 
   3  0000              ; Configuration:
   4  0000              ;       without long instruction
   5  0000              ;       Single ROM, Multi-RAM
   6  0000              ;       bits_per_rom_unit:16
   7  0000              ;       with mp1
   8  0000              ;       with tbhp, address(0x9)
   9  0000              ;          Use tabrd-const
  10  0000              ;       
  11  0000              ;       
  12  0000              ;       
  13  0000              ; use 'tabrdc' instead of 'tabrd'
  14  0000              ;       
  15  0000              
  16  0000              #pragma translator "holtek-gcc 4.6.4" "3.18" "build 20130711"
  17  0000              ; Rebuild 126
  18  0000              
  19  0000              ir equ [2]
  20  0000              mp equ [3]
  21  0000              sbp equ [1]
  22  0000              acc equ [5]
  23  0000              bp equ [4]
  24  0000              tblp equ [7]
  25  0000              tbhp equ [9]
  26  0000              status equ [10]
  27  0000              c equ [10].0
  28  0000              ac equ [10].1
  29  0000              z equ [10].2
  30  0000              ov equ [10].3
  31  0000              intc equ [11]
  32  0000              
  33  0000              extern ra:byte
  34  0000              extern rb:byte
  35  0000              extern rc:byte
  36  0000              extern rd:byte
  37  0000              extern re:byte
  38  0000              extern rf:byte
  39  0000              extern rg:byte
  40  0000              extern rh:byte
  41  0000              extern _Crom2Prom:near
  42  0000              extern _Crom2PromNext:near
  43  0000              
  44  0000              RAMBANK 0 @HCCINIT, @HCCINIT0
  45  0000              
  46  0000              RAMBANK 0 @BITDATASEC, @BITDATASEC1
  47  0000              @HCCINIT	.section 'data'
  48  0000              @HCCINIT0	.section 'data'
  49  0000              @BITDATASEC	 .section 'data'
  50  0000              @BITDATASEC1	 .section 'data'
  51  0000              
  52  0000              #pragma debug scope 1 1
  53  0000              	extern __DELAY3:near
  54  0000              	extern __DELAYX3:near
  55  0000              	extern __DELAYX6:near
  56  0000              	extern __DELAYY5:near
  57  0000              	extern __DELAYY3:near
  58  0000              	extern _builtin_holtek_delay_2:byte
  59  0000              public _LedInit
文件：led.ASM      编译器版本 HGASM 0202 页次2

  60  0000              #pragma debug scope 2 1

   8  0000              #line 8 "F:\SVNRepo\Project\BS82D20A_AOPU_5KEY\USER_PROGRAM\led.c"
   8  0000              _LedInit .section 'code'
   8  0000              _LedInit proc
   8  0000  0003        	ret
   8  0001              _LedInit endp
   8  0001              #line 8 "F:\SVNRepo\Project\BS82D20A_AOPU_5KEY\USER_PROGRAM\led.c"
   8  0001              #pragma debug scope 1 1
   8  0001              ___pc equ [57]
   8  0001              public _LED_STANDBY_ON
   8  0001              #pragma debug scope 3 1
  13  0001              #line 13 "F:\SVNRepo\Project\BS82D20A_AOPU_5KEY\USER_PROGRAM\led.c"
  13  0000              _LED_STANDBY_ON .section 'code'
  13  0000              _LED_STANDBY_ON proc
  14  0000              #line 14 "F:\SVNRepo\Project\BS82D20A_AOPU_5KEY\USER_PROGRAM\led.c"
  14  0000  3639        	clr [57].4
  15  0001              #line 15 "F:\SVNRepo\Project\BS82D20A_AOPU_5KEY\USER_PROGRAM\led.c"
  15  0001  36B9        	clr [57].5
  15  0002  0003        	ret
  15  0003              _LED_STANDBY_ON endp
  15  0003              #line 15 "F:\SVNRepo\Project\BS82D20A_AOPU_5KEY\USER_PROGRAM\led.c"
  15  0003              #pragma debug scope 1 1
  15  0003              public _LED_STANDBY_OFF
  15  0003              #pragma debug scope 4 1
  19  0003              #line 19 "F:\SVNRepo\Project\BS82D20A_AOPU_5KEY\USER_PROGRAM\led.c"
  19  0000              _LED_STANDBY_OFF .section 'code'
  19  0000              _LED_STANDBY_OFF proc
  20  0000              #line 20 "F:\SVNRepo\Project\BS82D20A_AOPU_5KEY\USER_PROGRAM\led.c"
  20  0000  3239        	set [57].4
  21  0001              #line 21 "F:\SVNRepo\Project\BS82D20A_AOPU_5KEY\USER_PROGRAM\led.c"
  21  0001  32B9        	set [57].5
  21  0002  0003        	ret
  21  0003              _LED_STANDBY_OFF endp
  21  0003              #line 21 "F:\SVNRepo\Project\BS82D20A_AOPU_5KEY\USER_PROGRAM\led.c"
  21  0003              #pragma debug scope 1 1
  21  0003              public _LedAllOn
  21  0003              #pragma debug scope 5 1
  25  0003              #line 25 "F:\SVNRepo\Project\BS82D20A_AOPU_5KEY\USER_PROGRAM\led.c"
  25  0000              _LedAllOn .section 'code'
  25  0000              _LedAllOn proc
  26  0000              #line 26 "F:\SVNRepo\Project\BS82D20A_AOPU_5KEY\USER_PROGRAM\led.c"
  26  0000  3039        	set [57].0
  27  0001              #line 27 "F:\SVNRepo\Project\BS82D20A_AOPU_5KEY\USER_PROGRAM\led.c"
  27  0001  30B9        	set [57].1
  28  0002              #line 28 "F:\SVNRepo\Project\BS82D20A_AOPU_5KEY\USER_PROGRAM\led.c"
  28  0002  3139        	set [57].2
  29  0003              #line 29 "F:\SVNRepo\Project\BS82D20A_AOPU_5KEY\USER_PROGRAM\led.c"
  29  0003  31B9        	set [57].3
  30  0004              #line 30 "F:\SVNRepo\Project\BS82D20A_AOPU_5KEY\USER_PROGRAM\led.c"
  30  0004  3239        	set [57].4
  31  0005              #line 31 "F:\SVNRepo\Project\BS82D20A_AOPU_5KEY\USER_PROGRAM\led.c"
  31  0005  36B9        	clr [57].5
  31  0006  0003        	ret
  31  0007              _LedAllOn endp
  31  0007              #line 31 "F:\SVNRepo\Project\BS82D20A_AOPU_5KEY\USER_PROGRAM\led.c"
  31  0007              #pragma debug scope 1 1
  31  0007              public _LedAllOff
  31  0007              #pragma debug scope 6 1
  35  0007              #line 35 "F:\SVNRepo\Project\BS82D20A_AOPU_5KEY\USER_PROGRAM\led.c"
文件：led.c        编译器版本 HGASM 0202 页次3

  35  0000              _LedAllOff .section 'code'
  35  0000              _LedAllOff proc
  36  0000              #line 36 "F:\SVNRepo\Project\BS82D20A_AOPU_5KEY\USER_PROGRAM\led.c"
  36  0000  3439        	clr [57].0
  37  0001              #line 37 "F:\SVNRepo\Project\BS82D20A_AOPU_5KEY\USER_PROGRAM\led.c"
  37  0001  34B9        	clr [57].1
  38  0002              #line 38 "F:\SVNRepo\Project\BS82D20A_AOPU_5KEY\USER_PROGRAM\led.c"
  38  0002  3539        	clr [57].2
  39  0003              #line 39 "F:\SVNRepo\Project\BS82D20A_AOPU_5KEY\USER_PROGRAM\led.c"
  39  0003  35B9        	clr [57].3
  40  0004              #line 40 "F:\SVNRepo\Project\BS82D20A_AOPU_5KEY\USER_PROGRAM\led.c"
  40  0004  3639        	clr [57].4
  41  0005              #line 41 "F:\SVNRepo\Project\BS82D20A_AOPU_5KEY\USER_PROGRAM\led.c"
  41  0005  32B9        	set [57].5
  41  0006  0003        	ret
  41  0007              _LedAllOff endp
  41  0007              #line 41 "F:\SVNRepo\Project\BS82D20A_AOPU_5KEY\USER_PROGRAM\led.c"
  41  0007              #pragma debug scope 1 1
  41  0007              public _LedShowModle
  41  0007              #pragma debug scope 7 1
  66  0007              #line 66 "F:\SVNRepo\Project\BS82D20A_AOPU_5KEY\USER_PROGRAM\led.c"
  66  0000              _LedShowModle .section 'code'
  66  0000              _LedShowModle proc
  67  0000              #line 67 "F:\SVNRepo\Project\BS82D20A_AOPU_5KEY\USER_PROGRAM\led.c"
  67  0000  2000     E  	call _GetKeyMsg
  69  0001              #line 69 "F:\SVNRepo\Project\BS82D20A_AOPU_5KEY\USER_PROGRAM\led.c"
  69  0001  32B9        	set [57].5
 104  0002              #line 104 "F:\SVNRepo\Project\BS82D20A_AOPU_5KEY\USER_PROGRAM\led.c"
 104  0002  3139        	set [57].2
 105  0003              #line 105 "F:\SVNRepo\Project\BS82D20A_AOPU_5KEY\USER_PROGRAM\led.c"
 105  0003  31B9        	set [57].3
 106  0004              #line 106 "F:\SVNRepo\Project\BS82D20A_AOPU_5KEY\USER_PROGRAM\led.c"
 106  0004  3039        	set [57].0
 107  0005              #line 107 "F:\SVNRepo\Project\BS82D20A_AOPU_5KEY\USER_PROGRAM\led.c"
 107  0005  30B9        	set [57].1
 108  0006              #line 108 "F:\SVNRepo\Project\BS82D20A_AOPU_5KEY\USER_PROGRAM\led.c"
 108  0006  3239        	set [57].4
 108  0007  0003        	ret
 108  0008              _LedShowModle endp
 108  0008              #line 108 "F:\SVNRepo\Project\BS82D20A_AOPU_5KEY\USER_PROGRAM\led.c"
 108  0008              #pragma debug scope 1 1
 108  0008              public _LedShowCycle
 108  0008              #pragma debug scope 8 1
 118  0008              #line 118 "F:\SVNRepo\Project\BS82D20A_AOPU_5KEY\USER_PROGRAM\led.c"
 118  0000              _LedShowCycle .section 'code'
 118  0000              _LedShowCycle proc
 118  0000  00              local _LedShowCycle_2 db 1 dup(?)	; 0,1
 121  0001              #line 121 "F:\SVNRepo\Project\BS82D20A_AOPU_5KEY\USER_PROGRAM\led.c"
 121  0000  2000     E  	call _GetKeyMsg
 122  0001              #line 122 "F:\SVNRepo\Project\BS82D20A_AOPU_5KEY\USER_PROGRAM\led.c"
 122  0001  0F05        	mov a,5
 122  0002  0080     E  	mov _APP_TIMER_Expired_2[2],a
 122  0003  1F00     E  	clr _APP_TIMER_Expired_2[3]
 122  0004  0700     E  	mov a,_AppData[8]
 122  0005  0080     E  	mov _APP_TIMER_Expired_2[0],a
 122  0006  0700     E  	mov a,_AppData[9]
 122  0007  0080     E  	mov _APP_TIMER_Expired_2[1],a
 122  0008  2000     E  	call _APP_TIMER_Expired
 122  0009  0080     E  	mov ra,a
 122  000A  1080     E  	sz ra
文件：led.c        编译器版本 HGASM 0202 页次4

 122  000B  2800     R  	jmp _LI1
 122  000C  2800     R  	jmp _L8
 122  000D              _LI1:
 124  000D              #line 124 "F:\SVNRepo\Project\BS82D20A_AOPU_5KEY\USER_PROGRAM\led.c"
 124  000D  0F00     E  	mov a,low (offset _AppData+8)
 124  000E  0080     E  	mov _APP_TIMER_Set_2[0],a
 124  000F  0F00     E  	mov a,high (offset _AppData+8)
 124  0010  0080     E  	mov _APP_TIMER_Set_2[1],a
 124  0011  2000     E  	call _APP_TIMER_Set
 126  0012              #line 126 "F:\SVNRepo\Project\BS82D20A_AOPU_5KEY\USER_PROGRAM\led.c"
 126  0012  0700     R  	mov a,___led_state_2021[0]
 126  0013  0080     R  	mov _LedShowCycle_2[0],a
 126  0014  1080     R  	sz _LedShowCycle_2[0]
 126  0015  2800     R  	jmp _L9
 128  0016              #line 128 "F:\SVNRepo\Project\BS82D20A_AOPU_5KEY\USER_PROGRAM\led.c"
 128  0016  2000     R  	call _LedAllOff
 129  0017              #line 129 "F:\SVNRepo\Project\BS82D20A_AOPU_5KEY\USER_PROGRAM\led.c"
 129  0017  36B9        	clr [57].5
 129  0018  2800     R  	jmp _L10
 129  0019              _L9:
 131  0019              #line 131 "F:\SVNRepo\Project\BS82D20A_AOPU_5KEY\USER_PROGRAM\led.c"
 131  0019  1700     R  	sdza _LedShowCycle_2[0]
 131  001A  2800     R  	jmp _L11
 133  001B              #line 133 "F:\SVNRepo\Project\BS82D20A_AOPU_5KEY\USER_PROGRAM\led.c"
 133  001B  2000     R  	call _LedAllOff
 134  001C              #line 134 "F:\SVNRepo\Project\BS82D20A_AOPU_5KEY\USER_PROGRAM\led.c"
 134  001C  3239        	set [57].4
 134  001D  2800     R  	jmp _L10
 134  001E              _L11:
 136  001E              #line 136 "F:\SVNRepo\Project\BS82D20A_AOPU_5KEY\USER_PROGRAM\led.c"
 136  001E  0700     R  	mov a,_LedShowCycle_2[0]
 136  001F  0A02        	sub a,2
 136  0020  390A        	snz z
 136  0021  2800     R  	jmp _L12
 136  0022              _L14:
 138  0022              #line 138 "F:\SVNRepo\Project\BS82D20A_AOPU_5KEY\USER_PROGRAM\led.c"
 138  0022  2000     R  	call _LedAllOff
 138  0023  2800     R  	jmp _L10
 138  0024              _L12:
 140  0024              #line 140 "F:\SVNRepo\Project\BS82D20A_AOPU_5KEY\USER_PROGRAM\led.c"
 140  0024  0700     R  	mov a,_LedShowCycle_2[0]
 140  0025  0A03        	sub a,3
 140  0026  390A        	snz z
 140  0027  2800     R  	jmp _L13
 142  0028              #line 142 "F:\SVNRepo\Project\BS82D20A_AOPU_5KEY\USER_PROGRAM\led.c"
 142  0028  2000     R  	call _LedAllOff
 143  0029              #line 143 "F:\SVNRepo\Project\BS82D20A_AOPU_5KEY\USER_PROGRAM\led.c"
 143  0029  3039        	set [57].0
 143  002A  2800     R  	jmp _L10
 143  002B              _L13:
 145  002B              #line 145 "F:\SVNRepo\Project\BS82D20A_AOPU_5KEY\USER_PROGRAM\led.c"
 145  002B  0700     R  	mov a,_LedShowCycle_2[0]
 145  002C  0A04        	sub a,4
 145  002D  3D0A        	sz z
 145  002E  2800     R  	jmp _L14
 149  002F              #line 149 "F:\SVNRepo\Project\BS82D20A_AOPU_5KEY\USER_PROGRAM\led.c"
 149  002F  0700     R  	mov a,_LedShowCycle_2[0]
 149  0030  0A05        	sub a,5
 149  0031  390A        	snz z
 149  0032  2800     R  	jmp _L15
文件：led.c        编译器版本 HGASM 0202 页次5

 151  0033              #line 151 "F:\SVNRepo\Project\BS82D20A_AOPU_5KEY\USER_PROGRAM\led.c"
 151  0033  2000     R  	call _LedAllOff
 152  0034              #line 152 "F:\SVNRepo\Project\BS82D20A_AOPU_5KEY\USER_PROGRAM\led.c"
 152  0034  30B9        	set [57].1
 152  0035  2800     R  	jmp _L10
 152  0036              _L15:
 154  0036              #line 154 "F:\SVNRepo\Project\BS82D20A_AOPU_5KEY\USER_PROGRAM\led.c"
 154  0036  0700     R  	mov a,_LedShowCycle_2[0]
 154  0037  0A06        	sub a,6
 154  0038  3D0A        	sz z
 154  0039  2800     R  	jmp _L14
 158  003A              #line 158 "F:\SVNRepo\Project\BS82D20A_AOPU_5KEY\USER_PROGRAM\led.c"
 158  003A  0700     R  	mov a,_LedShowCycle_2[0]
 158  003B  0A07        	sub a,7
 158  003C  390A        	snz z
 158  003D  2800     R  	jmp _L16
 160  003E              #line 160 "F:\SVNRepo\Project\BS82D20A_AOPU_5KEY\USER_PROGRAM\led.c"
 160  003E  2000     R  	call _LedAllOff
 161  003F              #line 161 "F:\SVNRepo\Project\BS82D20A_AOPU_5KEY\USER_PROGRAM\led.c"
 161  003F  3139        	set [57].2
 161  0040  2800     R  	jmp _L10
 161  0041              _L16:
 163  0041              #line 163 "F:\SVNRepo\Project\BS82D20A_AOPU_5KEY\USER_PROGRAM\led.c"
 163  0041  0700     R  	mov a,_LedShowCycle_2[0]
 163  0042  0A08        	sub a,8
 163  0043  3D0A        	sz z
 163  0044  2800     R  	jmp _L14
 167  0045              #line 167 "F:\SVNRepo\Project\BS82D20A_AOPU_5KEY\USER_PROGRAM\led.c"
 167  0045  0700     R  	mov a,_LedShowCycle_2[0]
 167  0046  0A09        	sub a,9
 167  0047  390A        	snz z
 167  0048  2800     R  	jmp _L17
 169  0049              #line 169 "F:\SVNRepo\Project\BS82D20A_AOPU_5KEY\USER_PROGRAM\led.c"
 169  0049  2000     R  	call _LedAllOff
 170  004A              #line 170 "F:\SVNRepo\Project\BS82D20A_AOPU_5KEY\USER_PROGRAM\led.c"
 170  004A  31B9        	set [57].3
 170  004B  2800     R  	jmp _L10
 170  004C              _L17:
 172  004C              #line 172 "F:\SVNRepo\Project\BS82D20A_AOPU_5KEY\USER_PROGRAM\led.c"
 172  004C  0700     R  	mov a,_LedShowCycle_2[0]
 172  004D  0A0A        	sub a,10
 172  004E  3D0A        	sz z
 172  004F  2800     R  	jmp _L14
 172  0050  0A01        	sub a,(11)-(10)
 172  0051  3D0A        	sz z
 172  0052  2800     R  	jmp _L18
 172  0053              _L10:
 180  0053              #line 180 "F:\SVNRepo\Project\BS82D20A_AOPU_5KEY\USER_PROGRAM\led.c"
 180  0053  1400     R  	inca _LedShowCycle_2[0]
 180  0054  0080     R  	mov ___led_state_2021[0],a
 183  0055              #line 183 "F:\SVNRepo\Project\BS82D20A_AOPU_5KEY\USER_PROGRAM\led.c"
 183  0055  1F00     E  	clr ra
 183  0056  2800     R  	jmp _L8
 183  0057              _L18:
 178  0057              #line 178 "F:\SVNRepo\Project\BS82D20A_AOPU_5KEY\USER_PROGRAM\led.c"
 178  0057  0F01        	mov a,1
 178  0058  0080     E  	mov ra,a
 178  0059              _L8:
 184  0059              #line 184 "F:\SVNRepo\Project\BS82D20A_AOPU_5KEY\USER_PROGRAM\led.c"
 184  0059  0700     E  	mov a,ra
文件：led.c        编译器版本 HGASM 0202 页次6

 184  005A  0003        	ret
 184  005B              _LedShowCycle endp
 184  005B              #line 184 "F:\SVNRepo\Project\BS82D20A_AOPU_5KEY\USER_PROGRAM\led.c"
 184  005B              #pragma debug scope 1 1
 184  005B              ___pb equ [32]
 184  005B              ___pd equ [65]
 184  005B              public _JKShowCycle
 184  005B              #pragma debug scope 9 1
 187  005B              #line 187 "F:\SVNRepo\Project\BS82D20A_AOPU_5KEY\USER_PROGRAM\led.c"
 187  0000              _JKShowCycle .section 'code'
 187  0000              _JKShowCycle proc
 187  0000  00              local _JKShowCycle_2 db 1 dup(?)	; 0,1
 190  0001              #line 190 "F:\SVNRepo\Project\BS82D20A_AOPU_5KEY\USER_PROGRAM\led.c"
 190  0000  2000     E  	call _GetKeyMsg
 191  0001              #line 191 "F:\SVNRepo\Project\BS82D20A_AOPU_5KEY\USER_PROGRAM\led.c"
 191  0001  0F14        	mov a,20
 191  0002  0080     E  	mov _APP_TIMER_Expired_2[2],a
 191  0003  1F00     E  	clr _APP_TIMER_Expired_2[3]
 191  0004  0700     E  	mov a,_AppData[8]
 191  0005  0080     E  	mov _APP_TIMER_Expired_2[0],a
 191  0006  0700     E  	mov a,_AppData[9]
 191  0007  0080     E  	mov _APP_TIMER_Expired_2[1],a
 191  0008  2000     E  	call _APP_TIMER_Expired
 191  0009  0080     E  	mov ra,a
 191  000A  1080     E  	sz ra
 191  000B  2800     R  	jmp _LI2
 191  000C  2800     R  	jmp _L36
 191  000D              _LI2:
 193  000D              #line 193 "F:\SVNRepo\Project\BS82D20A_AOPU_5KEY\USER_PROGRAM\led.c"
 193  000D  0F00     E  	mov a,low (offset _AppData+8)
 193  000E  0080     E  	mov _APP_TIMER_Set_2[0],a
 193  000F  0F00     E  	mov a,high (offset _AppData+8)
 193  0010  0080     E  	mov _APP_TIMER_Set_2[1],a
 193  0011  2000     E  	call _APP_TIMER_Set
 195  0012              #line 195 "F:\SVNRepo\Project\BS82D20A_AOPU_5KEY\USER_PROGRAM\led.c"
 195  0012  2000     R  	call _LED_STANDBY_OFF
 197  0013              #line 197 "F:\SVNRepo\Project\BS82D20A_AOPU_5KEY\USER_PROGRAM\led.c"
 197  0013  0700     R  	mov a,___led_state_2025[0]
 197  0014  0080     R  	mov _JKShowCycle_2[0],a
 197  0015  1080     R  	sz _JKShowCycle_2[0]
 197  0016  2800     R  	jmp _L37
 199  0017              #line 199 "F:\SVNRepo\Project\BS82D20A_AOPU_5KEY\USER_PROGRAM\led.c"
 199  0017  3439        	clr [57].0
 200  0018              #line 200 "F:\SVNRepo\Project\BS82D20A_AOPU_5KEY\USER_PROGRAM\led.c"
 200  0018  3720        	clr [32].6
 200  0019  2800     R  	jmp _L48
 200  001A              _L37:
 211  001A              #line 211 "F:\SVNRepo\Project\BS82D20A_AOPU_5KEY\USER_PROGRAM\led.c"
 211  001A  1700     R  	sdza _JKShowCycle_2[0]
 211  001B  2800     R  	jmp _L39
 213  001C              #line 213 "F:\SVNRepo\Project\BS82D20A_AOPU_5KEY\USER_PROGRAM\led.c"
 213  001C  3439        	clr [57].0
 214  001D              #line 214 "F:\SVNRepo\Project\BS82D20A_AOPU_5KEY\USER_PROGRAM\led.c"
 214  001D  3720        	clr [32].6
 216  001E              #line 216 "F:\SVNRepo\Project\BS82D20A_AOPU_5KEY\USER_PROGRAM\led.c"
 216  001E  3539        	clr [57].2
 217  001F              #line 217 "F:\SVNRepo\Project\BS82D20A_AOPU_5KEY\USER_PROGRAM\led.c"
 217  001F  35C1        	clr [65].3
 219  0020              #line 219 "F:\SVNRepo\Project\BS82D20A_AOPU_5KEY\USER_PROGRAM\led.c"
 219  0020  30B9        	set [57].1
文件：led.c        编译器版本 HGASM 0202 页次7

 220  0021              #line 220 "F:\SVNRepo\Project\BS82D20A_AOPU_5KEY\USER_PROGRAM\led.c"
 220  0021  33A0        	set [32].7
 220  0022              _L46:
 222  0022              #line 222 "F:\SVNRepo\Project\BS82D20A_AOPU_5KEY\USER_PROGRAM\led.c"
 222  0022  31B9        	set [57].3
 223  0023              #line 223 "F:\SVNRepo\Project\BS82D20A_AOPU_5KEY\USER_PROGRAM\led.c"
 223  0023  3141        	set [65].2
 223  0024  2800     R  	jmp _L38
 223  0025              _L39:
 225  0025              #line 225 "F:\SVNRepo\Project\BS82D20A_AOPU_5KEY\USER_PROGRAM\led.c"
 225  0025  0700     R  	mov a,_JKShowCycle_2[0]
 225  0026  0A02        	sub a,2
 225  0027  390A        	snz z
 225  0028  2800     R  	jmp _L40
 227  0029              #line 227 "F:\SVNRepo\Project\BS82D20A_AOPU_5KEY\USER_PROGRAM\led.c"
 227  0029  3039        	set [57].0
 228  002A              #line 228 "F:\SVNRepo\Project\BS82D20A_AOPU_5KEY\USER_PROGRAM\led.c"
 228  002A  3320        	set [32].6
 228  002B              _L48:
 230  002B              #line 230 "F:\SVNRepo\Project\BS82D20A_AOPU_5KEY\USER_PROGRAM\led.c"
 230  002B  3539        	clr [57].2
 231  002C              #line 231 "F:\SVNRepo\Project\BS82D20A_AOPU_5KEY\USER_PROGRAM\led.c"
 231  002C  35C1        	clr [65].3
 233  002D              #line 233 "F:\SVNRepo\Project\BS82D20A_AOPU_5KEY\USER_PROGRAM\led.c"
 233  002D  34B9        	clr [57].1
 234  002E              #line 234 "F:\SVNRepo\Project\BS82D20A_AOPU_5KEY\USER_PROGRAM\led.c"
 234  002E  37A0        	clr [32].7
 234  002F  2800     R  	jmp _L46
 234  0030              _L40:
 239  0030              #line 239 "F:\SVNRepo\Project\BS82D20A_AOPU_5KEY\USER_PROGRAM\led.c"
 239  0030  0700     R  	mov a,_JKShowCycle_2[0]
 239  0031  0A03        	sub a,3
 239  0032  390A        	snz z
 239  0033  2800     R  	jmp _L41
 241  0034              #line 241 "F:\SVNRepo\Project\BS82D20A_AOPU_5KEY\USER_PROGRAM\led.c"
 241  0034  3439        	clr [57].0
 242  0035              #line 242 "F:\SVNRepo\Project\BS82D20A_AOPU_5KEY\USER_PROGRAM\led.c"
 242  0035  3720        	clr [32].6
 244  0036              #line 244 "F:\SVNRepo\Project\BS82D20A_AOPU_5KEY\USER_PROGRAM\led.c"
 244  0036  3539        	clr [57].2
 245  0037              #line 245 "F:\SVNRepo\Project\BS82D20A_AOPU_5KEY\USER_PROGRAM\led.c"
 245  0037  35C1        	clr [65].3
 245  0038  2800     R  	jmp _L47
 245  0039              _L41:
 253  0039              #line 253 "F:\SVNRepo\Project\BS82D20A_AOPU_5KEY\USER_PROGRAM\led.c"
 253  0039  0700     R  	mov a,_JKShowCycle_2[0]
 253  003A  0A04        	sub a,4
 253  003B  390A        	snz z
 253  003C  2800     R  	jmp _L42
 255  003D              #line 255 "F:\SVNRepo\Project\BS82D20A_AOPU_5KEY\USER_PROGRAM\led.c"
 255  003D  3439        	clr [57].0
 256  003E              #line 256 "F:\SVNRepo\Project\BS82D20A_AOPU_5KEY\USER_PROGRAM\led.c"
 256  003E  3720        	clr [32].6
 258  003F              #line 258 "F:\SVNRepo\Project\BS82D20A_AOPU_5KEY\USER_PROGRAM\led.c"
 258  003F  3139        	set [57].2
 259  0040              #line 259 "F:\SVNRepo\Project\BS82D20A_AOPU_5KEY\USER_PROGRAM\led.c"
 259  0040  31C1        	set [65].3
 259  0041              _L47:
 261  0041              #line 261 "F:\SVNRepo\Project\BS82D20A_AOPU_5KEY\USER_PROGRAM\led.c"
 261  0041  34B9        	clr [57].1
文件：led.c        编译器版本 HGASM 0202 页次8

 262  0042              #line 262 "F:\SVNRepo\Project\BS82D20A_AOPU_5KEY\USER_PROGRAM\led.c"
 262  0042  37A0        	clr [32].7
 264  0043              #line 264 "F:\SVNRepo\Project\BS82D20A_AOPU_5KEY\USER_PROGRAM\led.c"
 264  0043  35B9        	clr [57].3
 265  0044              #line 265 "F:\SVNRepo\Project\BS82D20A_AOPU_5KEY\USER_PROGRAM\led.c"
 265  0044  3541        	clr [65].2
 265  0045  2800     R  	jmp _L38
 265  0046              _L42:
 267  0046              #line 267 "F:\SVNRepo\Project\BS82D20A_AOPU_5KEY\USER_PROGRAM\led.c"
 267  0046  0700     R  	mov a,_JKShowCycle_2[0]
 267  0047  0A05        	sub a,5
 267  0048  390A        	snz z
 267  0049  2800     R  	jmp _L38
 269  004A              #line 269 "F:\SVNRepo\Project\BS82D20A_AOPU_5KEY\USER_PROGRAM\led.c"
 269  004A  3439        	clr [57].0
 270  004B              #line 270 "F:\SVNRepo\Project\BS82D20A_AOPU_5KEY\USER_PROGRAM\led.c"
 270  004B  3720        	clr [32].6
 272  004C              #line 272 "F:\SVNRepo\Project\BS82D20A_AOPU_5KEY\USER_PROGRAM\led.c"
 272  004C  3539        	clr [57].2
 273  004D              #line 273 "F:\SVNRepo\Project\BS82D20A_AOPU_5KEY\USER_PROGRAM\led.c"
 273  004D  35C1        	clr [65].3
 275  004E              #line 275 "F:\SVNRepo\Project\BS82D20A_AOPU_5KEY\USER_PROGRAM\led.c"
 275  004E  34B9        	clr [57].1
 276  004F              #line 276 "F:\SVNRepo\Project\BS82D20A_AOPU_5KEY\USER_PROGRAM\led.c"
 276  004F  37A0        	clr [32].7
 278  0050              #line 278 "F:\SVNRepo\Project\BS82D20A_AOPU_5KEY\USER_PROGRAM\led.c"
 278  0050  35B9        	clr [57].3
 279  0051              #line 279 "F:\SVNRepo\Project\BS82D20A_AOPU_5KEY\USER_PROGRAM\led.c"
 279  0051  3541        	clr [65].2
 280  0052              #line 280 "F:\SVNRepo\Project\BS82D20A_AOPU_5KEY\USER_PROGRAM\led.c"
 280  0052  0F01        	mov a,1
 280  0053  0080     E  	mov ra,a
 280  0054  2800     R  	jmp _L36
 280  0055              _L38:
 283  0055              #line 283 "F:\SVNRepo\Project\BS82D20A_AOPU_5KEY\USER_PROGRAM\led.c"
 283  0055  1400     R  	inca _JKShowCycle_2[0]
 283  0056  0080     R  	mov ___led_state_2025[0],a
 286  0057              #line 286 "F:\SVNRepo\Project\BS82D20A_AOPU_5KEY\USER_PROGRAM\led.c"
 286  0057  1F00     E  	clr ra
 286  0058              _L36:
 287  0058              #line 287 "F:\SVNRepo\Project\BS82D20A_AOPU_5KEY\USER_PROGRAM\led.c"
 287  0058  0700     E  	mov a,ra
 287  0059  0003        	ret
 287  005A              _JKShowCycle endp
 287  005A              #line 287 "F:\SVNRepo\Project\BS82D20A_AOPU_5KEY\USER_PROGRAM\led.c"
 287  005A              #pragma debug scope 1 1
 287  005A              public _KeyShowCycle
 287  005A              #pragma debug scope 10 1
 291  005A              #line 291 "F:\SVNRepo\Project\BS82D20A_AOPU_5KEY\USER_PROGRAM\led.c"
 291  0000              _KeyShowCycle .section 'code'
 291  0000              _KeyShowCycle proc
 291  0000  0003[           local _KeyShowCycle_2 db 3 dup(?)	; 0,3
            00
            ]
 291  0003              #pragma debug variable 10 10 _KeyShowCycle_2+0 "key"
 295  0003              #line 295 "F:\SVNRepo\Project\BS82D20A_AOPU_5KEY\USER_PROGRAM\led.c"
 295  0000  0F64        	mov a,100
 295  0001  0080     E  	mov _APP_TIMER_Expired_2[2],a
 295  0002  1F00     E  	clr _APP_TIMER_Expired_2[3]
 295  0003  0700     E  	mov a,_AppData[8]
文件：led.c        编译器版本 HGASM 0202 页次9

 295  0004  0080     E  	mov _APP_TIMER_Expired_2[0],a
 295  0005  0700     E  	mov a,_AppData[9]
 295  0006  0080     E  	mov _APP_TIMER_Expired_2[1],a
 295  0007  2000     E  	call _APP_TIMER_Expired
 295  0008  0080     R  	mov _KeyShowCycle_2[2],a
 295  0009  1080     R  	sz _KeyShowCycle_2[2]
 295  000A  2800     R  	jmp _LI3
 295  000B  2800     R  	jmp _L50
 295  000C              _LI3:
 297  000C              #line 297 "F:\SVNRepo\Project\BS82D20A_AOPU_5KEY\USER_PROGRAM\led.c"
 297  000C  0F00     E  	mov a,low (offset _AppData+8)
 297  000D  0080     E  	mov _APP_TIMER_Set_2[0],a
 297  000E  0F00     E  	mov a,high (offset _AppData+8)
 297  000F  0080     E  	mov _APP_TIMER_Set_2[1],a
 297  0010  2000     E  	call _APP_TIMER_Set
 298  0011              #line 298 "F:\SVNRepo\Project\BS82D20A_AOPU_5KEY\USER_PROGRAM\led.c"
 298  0011  0F01        	mov a,1
 298  0012  0080     R  	mov _KeyShowCycle_2[2],a
 298  0013  2800     R  	jmp _L51
 298  0014              _L50:
 301  0014              #line 301 "F:\SVNRepo\Project\BS82D20A_AOPU_5KEY\USER_PROGRAM\led.c"
 301  0014  2000     E  	call _GetKeyMsg
 301  0015  0700     E  	mov a,ra
 301  0016  0080     R  	mov _KeyShowCycle_2[0],a
 301  0017  0700     E  	mov a,rb
 301  0018  0080     R  	mov _KeyShowCycle_2[1],a
 302  0019              #line 302 "F:\SVNRepo\Project\BS82D20A_AOPU_5KEY\USER_PROGRAM\led.c"
 302  0019  0700     E  	mov a,ra
 302  001A  0600     E  	and a,rb
 302  001B  0B01        	add a,1
 302  001C  3C0A        	sz c
 302  001D  2800     R  	jmp _L51
 304  001E              #line 304 "F:\SVNRepo\Project\BS82D20A_AOPU_5KEY\USER_PROGRAM\led.c"
 304  001E  0F00     E  	mov a,low (offset _AppData+8)
 304  001F  0080     E  	mov _APP_TIMER_Set_2[0],a
 304  0020  0F00     E  	mov a,high (offset _AppData+8)
 304  0021  0080     E  	mov _APP_TIMER_Set_2[1],a
 304  0022  2000     E  	call _APP_TIMER_Set
 305  0023              #line 305 "F:\SVNRepo\Project\BS82D20A_AOPU_5KEY\USER_PROGRAM\led.c"
 305  0023  0700     R  	mov a,_KeyShowCycle_2[0]
 305  0024  0C01        	xor a,1
 305  0025  0700     R  	mov a,_KeyShowCycle_2[1]
 305  0026  3D0A        	sz z
 305  0027  0C30        	xor a,48
 305  0028  3D0A        	sz z
 305  0029  2800     R  	jmp _L52
 305  002A  0700     R  	mov a,_KeyShowCycle_2[0]
 305  002B  0C02        	xor a,2
 305  002C  0700     R  	mov a,_KeyShowCycle_2[1]
 305  002D  3D0A        	sz z
 305  002E  0C30        	xor a,48
 305  002F  3D0A        	sz z
 305  0030  2800     R  	jmp _L53
 305  0031  0700     R  	mov a,_KeyShowCycle_2[0]
 305  0032  0C04        	xor a,4
 305  0033  0700     R  	mov a,_KeyShowCycle_2[1]
 305  0034  3D0A        	sz z
 305  0035  0C30        	xor a,48
 305  0036  3D0A        	sz z
 305  0037  2800     R  	jmp _L54
文件：led.c        编译器版本 HGASM 0202 页次10

 305  0038  0700     R  	mov a,_KeyShowCycle_2[0]
 305  0039  0C08        	xor a,8
 305  003A  0700     R  	mov a,_KeyShowCycle_2[1]
 305  003B  3D0A        	sz z
 305  003C  0C30        	xor a,48
 305  003D  3D0A        	sz z
 305  003E  2800     R  	jmp _L55
 305  003F  0700     R  	mov a,_KeyShowCycle_2[0]
 305  0040  0C10        	xor a,16
 305  0041  0700     R  	mov a,_KeyShowCycle_2[1]
 305  0042  3D0A        	sz z
 305  0043  0C30        	xor a,48
 305  0044  390A        	snz z
 305  0045  2800     R  	jmp _L51
 305  0046  2800     R  	jmp _L65
 305  0047              _L55:
 309  0047              #line 309 "F:\SVNRepo\Project\BS82D20A_AOPU_5KEY\USER_PROGRAM\led.c"
 309  0047  0700     E  	mov a,_AppData[24]
 309  0048  0080     E  	mov ra,a
 309  0049  3C00     E  	sz ra.0
 309  004A  2800     R  	jmp _L57
 311  004B              #line 311 "F:\SVNRepo\Project\BS82D20A_AOPU_5KEY\USER_PROGRAM\led.c"
 311  004B  3000     E  	set ra.0
 311  004C  0700     E  	mov a,ra
 311  004D  0080     E  	mov _AppData[24],a
 312  004E              #line 312 "F:\SVNRepo\Project\BS82D20A_AOPU_5KEY\USER_PROGRAM\led.c"
 312  004E  31B9        	set [57].3
 312  004F  2800     R  	jmp _L51
 312  0050              _L57:
 316  0050              #line 316 "F:\SVNRepo\Project\BS82D20A_AOPU_5KEY\USER_PROGRAM\led.c"
 316  0050  3400     E  	clr ra.0
 316  0051  0700     E  	mov a,ra
 316  0052  0080     E  	mov _AppData[24],a
 317  0053              #line 317 "F:\SVNRepo\Project\BS82D20A_AOPU_5KEY\USER_PROGRAM\led.c"
 317  0053  35B9        	clr [57].3
 317  0054  2800     R  	jmp _L51
 317  0055              _L65:
 322  0055              #line 322 "F:\SVNRepo\Project\BS82D20A_AOPU_5KEY\USER_PROGRAM\led.c"
 322  0055  0700     E  	mov a,_AppData[24]
 322  0056  0080     E  	mov ra,a
 322  0057  3C00     E  	sz ra.1
 322  0058  2800     R  	jmp _L58
 324  0059              #line 324 "F:\SVNRepo\Project\BS82D20A_AOPU_5KEY\USER_PROGRAM\led.c"
 324  0059  3000     E  	set ra.1
 324  005A  0700     E  	mov a,ra
 324  005B  0080     E  	mov _AppData[24],a
 325  005C              #line 325 "F:\SVNRepo\Project\BS82D20A_AOPU_5KEY\USER_PROGRAM\led.c"
 325  005C  3139        	set [57].2
 325  005D  2800     R  	jmp _L51
 325  005E              _L58:
 329  005E              #line 329 "F:\SVNRepo\Project\BS82D20A_AOPU_5KEY\USER_PROGRAM\led.c"
 329  005E  3400     E  	clr ra.1
 329  005F  0700     E  	mov a,ra
 329  0060  0080     E  	mov _AppData[24],a
 330  0061              #line 330 "F:\SVNRepo\Project\BS82D20A_AOPU_5KEY\USER_PROGRAM\led.c"
 330  0061  3539        	clr [57].2
 330  0062  2800     R  	jmp _L51
 330  0063              _L52:
 335  0063              #line 335 "F:\SVNRepo\Project\BS82D20A_AOPU_5KEY\USER_PROGRAM\led.c"
 335  0063  0700     E  	mov a,_AppData[24]
文件：led.c        编译器版本 HGASM 0202 页次11

 335  0064  0080     E  	mov ra,a
 335  0065  3C00     E  	sz ra.2
 335  0066  2800     R  	jmp _L59
 337  0067              #line 337 "F:\SVNRepo\Project\BS82D20A_AOPU_5KEY\USER_PROGRAM\led.c"
 337  0067  3000     E  	set ra.2
 337  0068  0700     E  	mov a,ra
 337  0069  0080     E  	mov _AppData[24],a
 338  006A              #line 338 "F:\SVNRepo\Project\BS82D20A_AOPU_5KEY\USER_PROGRAM\led.c"
 338  006A  30B9        	set [57].1
 338  006B  2800     R  	jmp _L51
 338  006C              _L59:
 342  006C              #line 342 "F:\SVNRepo\Project\BS82D20A_AOPU_5KEY\USER_PROGRAM\led.c"
 342  006C  3400     E  	clr ra.2
 342  006D  0700     E  	mov a,ra
 342  006E  0080     E  	mov _AppData[24],a
 343  006F              #line 343 "F:\SVNRepo\Project\BS82D20A_AOPU_5KEY\USER_PROGRAM\led.c"
 343  006F  34B9        	clr [57].1
 343  0070  2800     R  	jmp _L51
 343  0071              _L53:
 348  0071              #line 348 "F:\SVNRepo\Project\BS82D20A_AOPU_5KEY\USER_PROGRAM\led.c"
 348  0071  0700     E  	mov a,_AppData[25]
 348  0072  0A10        	sub a,16
 348  0073  3D0A        	sz z
 348  0074  2800     R  	jmp _L60
 350  0075              #line 350 "F:\SVNRepo\Project\BS82D20A_AOPU_5KEY\USER_PROGRAM\led.c"
 350  0075  0F10        	mov a,16
 350  0076  0080     E  	mov _AppData[25],a
 351  0077              #line 351 "F:\SVNRepo\Project\BS82D20A_AOPU_5KEY\USER_PROGRAM\led.c"
 351  0077  3039        	set [57].0
 351  0078  2800     R  	jmp _L51
 351  0079              _L60:
 355  0079              #line 355 "F:\SVNRepo\Project\BS82D20A_AOPU_5KEY\USER_PROGRAM\led.c"
 355  0079  1F00     E  	clr _AppData[25]
 356  007A              #line 356 "F:\SVNRepo\Project\BS82D20A_AOPU_5KEY\USER_PROGRAM\led.c"
 356  007A  3439        	clr [57].0
 356  007B  2800     R  	jmp _L51
 356  007C              _L54:
 362  007C              #line 362 "F:\SVNRepo\Project\BS82D20A_AOPU_5KEY\USER_PROGRAM\led.c"
 362  007C  1080     R  	sz ___standby_2030[0]
 362  007D  2800     R  	jmp _LI4
 362  007E  2800     R  	jmp _L61
 362  007F              _LI4:
 364  007F              #line 364 "F:\SVNRepo\Project\BS82D20A_AOPU_5KEY\USER_PROGRAM\led.c"
 364  007F  1F00     R  	clr ___standby_2030[0]
 365  0080              #line 365 "F:\SVNRepo\Project\BS82D20A_AOPU_5KEY\USER_PROGRAM\led.c"
 365  0080  2000     R  	call _LED_STANDBY_OFF
 365  0081  2800     R  	jmp _L51
 365  0082              _L61:
 369  0082              #line 369 "F:\SVNRepo\Project\BS82D20A_AOPU_5KEY\USER_PROGRAM\led.c"
 369  0082  0F01        	mov a,1
 369  0083  0080     R  	mov ___standby_2030[0],a
 370  0084              #line 370 "F:\SVNRepo\Project\BS82D20A_AOPU_5KEY\USER_PROGRAM\led.c"
 370  0084  2000     R  	call _LED_STANDBY_ON
 370  0085              _L51:
 382  0085              #line 382 "F:\SVNRepo\Project\BS82D20A_AOPU_5KEY\USER_PROGRAM\led.c"
 382  0085  0700     R  	mov a,_KeyShowCycle_2[2]
 382  0086  0003        	ret
 382  0087              _KeyShowCycle endp
 382  0087              #line 382 "F:\SVNRepo\Project\BS82D20A_AOPU_5KEY\USER_PROGRAM\led.c"
 382  0087              #pragma debug scope 1 1
文件：led.c        编译器版本 HGASM 0202 页次12

 382  0087              public _BuzzMs
 382  0087              #pragma debug scope 11 1
 385  0087              #line 385 "F:\SVNRepo\Project\BS82D20A_AOPU_5KEY\USER_PROGRAM\led.c"
 385  0000              _BuzzMs .section 'code'
 385  0000              _BuzzMs proc
 385  0000  00              local _BuzzMs_2 db 1 dup(?)	; 0,1
 385  0000  0080     E  	mov ra,a
 385  0001              #pragma debug variable 8 11 _BuzzMs_2+0 "ms"
 386  0001              #line 386 "F:\SVNRepo\Project\BS82D20A_AOPU_5KEY\USER_PROGRAM\led.c"
 386  0001  0700     E  	mov a,ra
 386  0002  0080     E  	mov _AppData[27],a
 387  0003              #line 387 "F:\SVNRepo\Project\BS82D20A_AOPU_5KEY\USER_PROGRAM\led.c"
 387  0003  2000     E  	call _PTM0A_Start
 387  0004  0003        	ret
 387  0005              _BuzzMs endp
 387  0005              #line 387 "F:\SVNRepo\Project\BS82D20A_AOPU_5KEY\USER_PROGRAM\led.c"
 387  0005              #pragma debug scope 1 1
 387  0005              public _BuzzIsr
 387  0005              #pragma debug scope 12 1
 392  0005              #line 392 "F:\SVNRepo\Project\BS82D20A_AOPU_5KEY\USER_PROGRAM\led.c"
 392  0000              _BuzzIsr .section 'code'
 392  0000              _BuzzIsr proc
 393  0000              #line 393 "F:\SVNRepo\Project\BS82D20A_AOPU_5KEY\USER_PROGRAM\led.c"
 393  0000  0700     E  	mov a,_AppData[27]
 393  0001  0080     E  	mov ra,a
 393  0002  1080     E  	sz ra
 393  0003  2800     R  	jmp _LI5
 393  0004  2800     R  	jmp _L67
 393  0005              _LI5:
 395  0005              #line 395 "F:\SVNRepo\Project\BS82D20A_AOPU_5KEY\USER_PROGRAM\led.c"
 395  0005  1580     E  	dec ra
 395  0006  0700     E  	mov a,ra
 395  0007  0080     E  	mov _AppData[27],a
 396  0008              #line 396 "F:\SVNRepo\Project\BS82D20A_AOPU_5KEY\USER_PROGRAM\led.c"
 396  0008  1700     E  	sdza ra
 396  0009  2800     R  	jmp _L67
 398  000A              #line 398 "F:\SVNRepo\Project\BS82D20A_AOPU_5KEY\USER_PROGRAM\led.c"
 398  000A  2000     E  	call _PTM0A_Stop
 398  000B              _L67:
 398  000B  0003        	ret
 398  000C              _BuzzIsr endp
 398  000C              #line 398 "F:\SVNRepo\Project\BS82D20A_AOPU_5KEY\USER_PROGRAM\led.c"
 398  000C              #pragma debug scope 1 1
 398  0000              @HCCINIT0	.section	'data'
 398  0000              ___standby_2030	db 0
 398  0001              #pragma debug variable 8 10 ___standby_2030 "standby"
 398  0001              
 398  0000              @HCCINIT .section 'data'
 398  0001              @HCCINIT0	.section	'data'
 398  0001              ___led_state_2025	db 0
 398  0002              #pragma debug variable 8 9 ___led_state_2025 "led_state"
 398  0002              
 398  0000              @HCCINIT .section 'data'
 398  0002              @HCCINIT0	.section	'data'
 398  0002              ___led_state_2021	db 0
 398  0003              #pragma debug variable 8 8 ___led_state_2021 "led_state"
 398  0003              
 398  0000              @HCCINIT .section 'data'
 398  0000              #pragma debug struct_end
 398  0000              #pragma debug struct_end
文件：led.c        编译器版本 HGASM 0202 页次13

 398  0000              #pragma debug union_end
 398  0000              #pragma debug union_end
 398  0000              #pragma debug variable 43 1 ___pb "__pb" 1
 398  0000              #pragma debug struct_end
 398  0000              #pragma debug struct_end
 398  0000              #pragma debug union_end
 398  0000              #pragma debug union_end
 398  0000              #pragma debug variable 45 1 ___pc "__pc" 1
 398  0000              #pragma debug struct_end
 398  0000              #pragma debug struct_end
 398  0000              #pragma debug union_end
 398  0000              #pragma debug union_end
 398  0000              #pragma debug variable 47 1 ___pd "__pd" 1
 398  0000              
 398  0000              ; output external variables
 398  0000              extern _AppData:byte
 398  0000              extern _GetKeyMsg:near
 398  0000              extern _APP_TIMER_Expired_2:byte
 398  0000              extern _APP_TIMER_Expired:near
 398  0000              extern _APP_TIMER_Set_2:byte
 398  0000              extern _APP_TIMER_Set:near
 398  0000              extern _PTM0A_Start:near
 398  0000              extern _PTM0A_Stop:near
 398  0000              
 398  0000              ; 
 398  0000              ; Generated by holtek-gcc v3.18, Thu Aug 02 09:03:52 2018
 398  0000              ; Rebuild 126
 398  0000              ; end of file


        0 Errors, 0