文件：QMsg.h       编译器版本 HGASM 0202 页次1


   1  0000              ; Generated by holtek-gcc v3.18, Wed Aug 01 17:41:28 2018
   2  0000              ; 
   3  0000              ; Configuration:
   4  0000              ;       without long instruction
   5  0000              ;       Single ROM, Multi-RAM
   6  0000              ;       bits_per_rom_unit:16
   7  0000              ;       with mp1
   8  0000              ;       with tbhp, address(0x9)
   9  0000              ;          Use tabrd-const
  10  0000              ;       
  11  0000              ;       
  12  0000              ;       
  13  0000              ; use 'tabrdc' instead of 'tabrd'
  14  0000              ;       
  15  0000              
  16  0000              #pragma translator "holtek-gcc 4.6.4" "3.18" "build 20130711"
  17  0000              ; Rebuild 126
  18  0000              
  19  0000              ir equ [2]
  20  0000              mp equ [3]
  21  0000              sbp equ [1]
  22  0000              acc equ [5]
  23  0000              bp equ [4]
  24  0000              tblp equ [7]
  25  0000              tbhp equ [9]
  26  0000              status equ [10]
  27  0000              c equ [10].0
  28  0000              ac equ [10].1
  29  0000              z equ [10].2
  30  0000              ov equ [10].3
  31  0000              intc equ [11]
  32  0000              
  33  0000              extern ra:byte
  34  0000              extern rb:byte
  35  0000              extern rc:byte
  36  0000              extern rd:byte
  37  0000              extern re:byte
  38  0000              extern rf:byte
  39  0000              extern rg:byte
  40  0000              extern rh:byte
  41  0000              extern _Crom2Prom:near
  42  0000              extern _Crom2PromNext:near
  43  0000              
  44  0000              RAMBANK 0 @HCCINIT, @HCCINIT0
  45  0000              
  46  0000              RAMBANK 0 @BITDATASEC, @BITDATASEC1
  47  0000              @HCCINIT	.section 'data'
  48  0000              @HCCINIT0	.section 'data'
  49  0000              @BITDATASEC	 .section 'data'
  50  0000              @BITDATASEC1	 .section 'data'
  51  0000              
  52  0000              #pragma debug scope 1 1
  53  0000              public _QMsgInit
  54  0000              #pragma debug scope 2 1

 122  0000              #line 122 "F:\SVNRepo\Project\BS82D20A_AOPU_5KEY\USER_PROGRAM\QMsg.c"
 122  0000              _QMsgInit .section 'code'
 122  0000              _QMsgInit proc
 122  0000              public _QMsgInit_2
文件：QMsg.c       编译器版本 HGASM 0202 页次2

 122  0000  0005[           local _QMsgInit_2 db 5 dup(?)	; 5,0
            00
            ]
 122  0005              #pragma debug struct_end
 122  0005              #pragma debug struct_end
 122  0005              #pragma debug struct_end
 122  0005              #pragma debug struct_end
 122  0005              #pragma debug pointer 44 43 2
 122  0005              #pragma debug pointer 44 43 2
 122  0005              #pragma debug variable 44 2 _QMsgInit_2+0 "this"
 122  0005              #pragma debug pointer 45 42 2
 122  0005              #pragma debug pointer 45 42 2
 122  0005              #pragma debug variable 45 2 _QMsgInit_2+2 "msgBuffer"
 122  0005              #pragma debug variable 8 2 _QMsgInit_2+4 "cap"
 123  0005              #line 123 "F:\SVNRepo\Project\BS82D20A_AOPU_5KEY\USER_PROGRAM\QMsg.c"
 123  0000  0700     R  	mov a,_QMsgInit_2[0]
 123  0001  0500     R  	or a,_QMsgInit_2[1]
 123  0002  3D0A        	sz z
 123  0003  2800     R  	jmp _L3
 127  0004              #line 127 "F:\SVNRepo\Project\BS82D20A_AOPU_5KEY\USER_PROGRAM\QMsg.c"
 127  0004  0700     R  	mov a,_QMsgInit_2[2]
 127  0005  0500     R  	or a,_QMsgInit_2[3]
 127  0006  3D0A        	sz z
 127  0007  2800     R  	jmp _L4
 131  0008              #line 131 "F:\SVNRepo\Project\BS82D20A_AOPU_5KEY\USER_PROGRAM\QMsg.c"
 131  0008  1080     R  	sz _QMsgInit_2[4]
 131  0009  2800     R  	jmp _LI1
 131  000A  2800     R  	jmp _L5
 131  000B              _LI1:
 135  000B              #line 135 "F:\SVNRepo\Project\BS82D20A_AOPU_5KEY\USER_PROGRAM\QMsg.c"
 135  000B  0700     R  	mov a,_QMsgInit_2[2]
 135  000C  0080     R  	mov _g_QMsg[0],a
 135  000D  0700     R  	mov a,_QMsgInit_2[3]
 135  000E  0080     R  	mov _g_QMsg[1],a
 136  000F              #line 136 "F:\SVNRepo\Project\BS82D20A_AOPU_5KEY\USER_PROGRAM\QMsg.c"
 136  000F  0700     R  	mov a,_QMsgInit_2[4]
 136  0010  0080     E  	mov rb,a
 136  0011  1F00     E  	clr rc
 136  0012  340A        	clr c
 136  0013  1A80     E  	rlc rb
 136  0014  1A80     E  	rlc rc
 136  0015  340A        	clr c
 136  0016  1A80     E  	rlc rb
 136  0017  1A80     E  	rlc rc
 136  0018  0700     E  	mov a,rb
 136  0019  0300     R  	add a,_QMsgInit_2[2]
 136  001A  0080     R  	mov _g_QMsg[2],a
 136  001B  0700     E  	mov a,rc
 136  001C  1300     R  	adc a,_QMsgInit_2[3]
 136  001D  0080     R  	mov _g_QMsg[3],a
 137  001E              #line 137 "F:\SVNRepo\Project\BS82D20A_AOPU_5KEY\USER_PROGRAM\QMsg.c"
 137  001E  1F00     R  	clr _g_QMsg[4]
 138  001F              #line 138 "F:\SVNRepo\Project\BS82D20A_AOPU_5KEY\USER_PROGRAM\QMsg.c"
 138  001F  1F00     R  	clr _g_QMsg[5]
 139  0020              #line 139 "F:\SVNRepo\Project\BS82D20A_AOPU_5KEY\USER_PROGRAM\QMsg.c"
 139  0020  1F00     R  	clr _g_QMsg[6]
 140  0021              #line 140 "F:\SVNRepo\Project\BS82D20A_AOPU_5KEY\USER_PROGRAM\QMsg.c"
 140  0021  0700     R  	mov a,_QMsgInit_2[4]
 140  0022  0080     R  	mov _g_QMsg[7],a
 141  0023              #line 141 "F:\SVNRepo\Project\BS82D20A_AOPU_5KEY\USER_PROGRAM\QMsg.c"
文件：QMsg.c       编译器版本 HGASM 0202 页次3

 141  0023  1F00     E  	clr ra
 141  0024  2800     R  	jmp _L2
 141  0025              _L3:
 125  0025              #line 125 "F:\SVNRepo\Project\BS82D20A_AOPU_5KEY\USER_PROGRAM\QMsg.c"
 125  0025  0F01        	mov a,1
 125  0026  0080     E  	mov ra,a
 125  0027  2800     R  	jmp _L2
 125  0028              _L4:
 129  0028              #line 129 "F:\SVNRepo\Project\BS82D20A_AOPU_5KEY\USER_PROGRAM\QMsg.c"
 129  0028  0F02        	mov a,2
 129  0029  0080     E  	mov ra,a
 129  002A  2800     R  	jmp _L2
 129  002B              _L5:
 133  002B              #line 133 "F:\SVNRepo\Project\BS82D20A_AOPU_5KEY\USER_PROGRAM\QMsg.c"
 133  002B  0F03        	mov a,3
 133  002C  0080     E  	mov ra,a
 133  002D              _L2:
 142  002D              #line 142 "F:\SVNRepo\Project\BS82D20A_AOPU_5KEY\USER_PROGRAM\QMsg.c"
 142  002D  0700     E  	mov a,ra
 142  002E  0003        	ret
 142  002F              _QMsgInit endp
 142  002F              #line 142 "F:\SVNRepo\Project\BS82D20A_AOPU_5KEY\USER_PROGRAM\QMsg.c"
 142  002F              #pragma debug scope 1 1
 142  002F              public _QMsgPostSimple
 142  002F              #pragma debug scope 3 1
 144  002F              #line 144 "F:\SVNRepo\Project\BS82D20A_AOPU_5KEY\USER_PROGRAM\QMsg.c"
 144  0000              _QMsgPostSimple .section 'code'
 144  0000              _QMsgPostSimple proc
 144  0000              public _QMsgPostSimple_2
 144  0000  0006[           local _QMsgPostSimple_2 db 6 dup(?)	; 6,0
            00
            ]
 144  0006              #pragma debug struct_end
 144  0006              #pragma debug struct_end
 144  0006              #pragma debug struct_end
 144  0006              #pragma debug struct_end
 144  0006              #pragma debug pointer 48 47 3
 144  0006              #pragma debug pointer 48 47 3
 144  0006              #pragma debug variable 48 3 _QMsgPostSimple_2+0 "this"
 144  0006              #pragma debug variable 12 3 _QMsgPostSimple_2+2 "msgID"
 144  0006              #pragma debug variable 12 3 _QMsgPostSimple_2+4 "param"
 145  0006              #line 145 "F:\SVNRepo\Project\BS82D20A_AOPU_5KEY\USER_PROGRAM\QMsg.c"
 145  0000  0700     R  	mov a,_QMsgPostSimple_2[0]
 145  0001  0500     R  	or a,_QMsgPostSimple_2[1]
 145  0002  3D0A        	sz z
 145  0003  2800     R  	jmp _L10
 149  0004              #line 149 "F:\SVNRepo\Project\BS82D20A_AOPU_5KEY\USER_PROGRAM\QMsg.c"
 149  0004  0700     R  	mov a,_g_QMsg[7]
 149  0005  0080     E  	mov ra,a
 149  0006  0700     R  	mov a,_g_QMsg[6]
 149  0007  0200     E  	sub a,ra
 149  0008  3C0A        	sz c
 149  0009  2800     R  	jmp _L11
 151  000A              #line 151 "F:\SVNRepo\Project\BS82D20A_AOPU_5KEY\USER_PROGRAM\QMsg.c"
 151  000A  0700     R  	mov a,_g_QMsg[4]
 151  000B  0200     E  	sub a,ra
 151  000C  380A        	snz c
 151  000D  2800     R  	jmp _L9
 153  000E              #line 153 "F:\SVNRepo\Project\BS82D20A_AOPU_5KEY\USER_PROGRAM\QMsg.c"
 153  000E  1F00     R  	clr _g_QMsg[4]
文件：QMsg.c       编译器版本 HGASM 0202 页次4

 153  000F              _L9:
 155  000F              #line 155 "F:\SVNRepo\Project\BS82D20A_AOPU_5KEY\USER_PROGRAM\QMsg.c"
 155  000F  0700     R  	mov a,_g_QMsg[0]
 155  0010  0080     E  	mov rb,a
 155  0011  0700     R  	mov a,_g_QMsg[1]
 155  0012  0080     E  	mov rc,a
 155  0013  0700     R  	mov a,_g_QMsg[4]
 155  0014  0080     E  	mov rd,a
 155  0015  1F00     E  	clr re
 155  0016  340A        	clr c
 155  0017  1A80     E  	rlc rd
 155  0018  1A80     E  	rlc re
 155  0019  340A        	clr c
 155  001A  1A80     E  	rlc rd
 155  001B  1A80     E  	rlc re
 155  001C  0700     E  	mov a,rd
 155  001D  0300     E  	add a,rb
 155  001E  0083        	mov mp,a
 155  001F  0700     E  	mov a,re
 155  0020  1300     E  	adc a,rc
 155  0021  0081        	mov sbp,a
 155  0022  0701        	mov a,sbp
 155  0023  0084        	mov bp,a
 155  0024  0700     R  	mov a,_QMsgPostSimple_2[2]
 155  0025  0082        	mov ir,a
 155  0026  1483        	inc mp
 155  0027  0700     R  	mov a,_QMsgPostSimple_2[3]
 155  0028  0082        	mov ir,a
 156  0029              #line 156 "F:\SVNRepo\Project\BS82D20A_AOPU_5KEY\USER_PROGRAM\QMsg.c"
 156  0029  0700     R  	mov a,_g_QMsg[4]
 156  002A  0080     E  	mov rd,a
 156  002B  1F00     E  	clr re
 156  002C  340A        	clr c
 156  002D  1A80     E  	rlc rd
 156  002E  1A80     E  	rlc re
 156  002F  340A        	clr c
 156  0030  1A80     E  	rlc rd
 156  0031  1A80     E  	rlc re
 156  0032  0700     E  	mov a,rd
 156  0033  0380     E  	addm a,rb
 156  0034  0700     E  	mov a,re
 156  0035  1380     E  	adcm a,rc
 156  0036  0F02        	mov a,2
 156  0037  0300     E  	add a,rb
 156  0038  0083        	mov mp,a
 156  0039  0F00        	mov a,0
 156  003A  1300     E  	adc a,rc
 156  003B  0081        	mov sbp,a
 156  003C  0701        	mov a,sbp
 156  003D  0084        	mov bp,a
 156  003E  0700     R  	mov a,_QMsgPostSimple_2[4]
 156  003F  0082        	mov ir,a
 156  0040  1483        	inc mp
 156  0041  0700     R  	mov a,_QMsgPostSimple_2[5]
 156  0042  0082        	mov ir,a
 157  0043              #line 157 "F:\SVNRepo\Project\BS82D20A_AOPU_5KEY\USER_PROGRAM\QMsg.c"
 157  0043  1480     R  	inc _g_QMsg[4]
 159  0044              #line 159 "F:\SVNRepo\Project\BS82D20A_AOPU_5KEY\USER_PROGRAM\QMsg.c"
 159  0044  1480     R  	inc _g_QMsg[6]
 161  0045              #line 161 "F:\SVNRepo\Project\BS82D20A_AOPU_5KEY\USER_PROGRAM\QMsg.c"
文件：QMsg.c       编译器版本 HGASM 0202 页次5

 161  0045  1F00     E  	clr ra
 161  0046  2800     R  	jmp _L8
 161  0047              _L10:
 147  0047              #line 147 "F:\SVNRepo\Project\BS82D20A_AOPU_5KEY\USER_PROGRAM\QMsg.c"
 147  0047  0F01        	mov a,1
 147  0048  0080     E  	mov ra,a
 147  0049  2800     R  	jmp _L8
 147  004A              _L11:
 163  004A              #line 163 "F:\SVNRepo\Project\BS82D20A_AOPU_5KEY\USER_PROGRAM\QMsg.c"
 163  004A  0F02        	mov a,2
 163  004B  0080     E  	mov ra,a
 163  004C              _L8:
 164  004C              #line 164 "F:\SVNRepo\Project\BS82D20A_AOPU_5KEY\USER_PROGRAM\QMsg.c"
 164  004C  0700     E  	mov a,ra
 164  004D  0003        	ret
 164  004E              _QMsgPostSimple endp
 164  004E              #line 164 "F:\SVNRepo\Project\BS82D20A_AOPU_5KEY\USER_PROGRAM\QMsg.c"
 164  004E              #pragma debug scope 1 1
 164  004E              public _QMsgPost
 164  004E              #pragma debug scope 4 1
 166  004E              #line 166 "F:\SVNRepo\Project\BS82D20A_AOPU_5KEY\USER_PROGRAM\QMsg.c"
 166  0000              _QMsgPost .section 'code'
 166  0000              _QMsgPost proc
 166  0000              public _QMsgPost_2
 166  0000  0006[           local _QMsgPost_2 db 6 dup(?)	; 6,0
            00
            ]
 166  0006              #pragma debug struct_end
 166  0006              #pragma debug struct_end
 166  0006              #pragma debug struct_end
 166  0006              #pragma debug struct_end
 166  0006              #pragma debug pointer 51 50 4
 166  0006              #pragma debug pointer 51 50 4
 166  0006              #pragma debug variable 51 4 _QMsgPost_2+0 "this"
 166  0006              #pragma debug struct_end
 166  0006              #pragma debug struct_end
 166  0006              #pragma debug variable 52 4 _QMsgPost_2+2 "msg"
 167  0006              #line 167 "F:\SVNRepo\Project\BS82D20A_AOPU_5KEY\USER_PROGRAM\QMsg.c"
 167  0000  0700     R  	mov a,_QMsgPost_2[0]
 167  0001  0500     R  	or a,_QMsgPost_2[1]
 167  0002  3D0A        	sz z
 167  0003  2800     R  	jmp _L15
 171  0004              #line 171 "F:\SVNRepo\Project\BS82D20A_AOPU_5KEY\USER_PROGRAM\QMsg.c"
 171  0004  0700     R  	mov a,_g_QMsg[7]
 171  0005  0080     E  	mov ra,a
 171  0006  0700     R  	mov a,_g_QMsg[6]
 171  0007  0200     E  	sub a,ra
 171  0008  3C0A        	sz c
 171  0009  2800     R  	jmp _L16
 173  000A              #line 173 "F:\SVNRepo\Project\BS82D20A_AOPU_5KEY\USER_PROGRAM\QMsg.c"
 173  000A  0700     R  	mov a,_g_QMsg[4]
 173  000B  0200     E  	sub a,ra
 173  000C  380A        	snz c
 173  000D  2800     R  	jmp _L14
 175  000E              #line 175 "F:\SVNRepo\Project\BS82D20A_AOPU_5KEY\USER_PROGRAM\QMsg.c"
 175  000E  1F00     R  	clr _g_QMsg[4]
 175  000F              _L14:
 177  000F              #line 177 "F:\SVNRepo\Project\BS82D20A_AOPU_5KEY\USER_PROGRAM\QMsg.c"
 177  000F  0700     R  	mov a,_g_QMsg[0]
 177  0010  0080     E  	mov rb,a
文件：QMsg.c       编译器版本 HGASM 0202 页次6

 177  0011  0700     R  	mov a,_g_QMsg[1]
 177  0012  0080     E  	mov rc,a
 177  0013  0700     R  	mov a,_g_QMsg[4]
 177  0014  0080     E  	mov rd,a
 177  0015  1F00     E  	clr re
 177  0016  340A        	clr c
 177  0017  1A80     E  	rlc rd
 177  0018  1A80     E  	rlc re
 177  0019  340A        	clr c
 177  001A  1A80     E  	rlc rd
 177  001B  1A80     E  	rlc re
 177  001C  0700     E  	mov a,rd
 177  001D  0300     E  	add a,rb
 177  001E  0083        	mov mp,a
 177  001F  0700     E  	mov a,re
 177  0020  1300     E  	adc a,rc
 177  0021  0081        	mov sbp,a
 177  0022  0701        	mov a,sbp
 177  0023  0084        	mov bp,a
 177  0024  0700     R  	mov a,_QMsgPost_2[2]
 177  0025  0082        	mov ir,a
 177  0026  1483        	inc mp
 177  0027  0700     R  	mov a,_QMsgPost_2[3]
 177  0028  0082        	mov ir,a
 178  0029              #line 178 "F:\SVNRepo\Project\BS82D20A_AOPU_5KEY\USER_PROGRAM\QMsg.c"
 178  0029  0700     R  	mov a,_g_QMsg[4]
 178  002A  0080     E  	mov rd,a
 178  002B  1F00     E  	clr re
 178  002C  340A        	clr c
 178  002D  1A80     E  	rlc rd
 178  002E  1A80     E  	rlc re
 178  002F  340A        	clr c
 178  0030  1A80     E  	rlc rd
 178  0031  1A80     E  	rlc re
 178  0032  0700     E  	mov a,rd
 178  0033  0380     E  	addm a,rb
 178  0034  0700     E  	mov a,re
 178  0035  1380     E  	adcm a,rc
 178  0036  0F02        	mov a,2
 178  0037  0300     E  	add a,rb
 178  0038  0083        	mov mp,a
 178  0039  0F00        	mov a,0
 178  003A  1300     E  	adc a,rc
 178  003B  0081        	mov sbp,a
 178  003C  0701        	mov a,sbp
 178  003D  0084        	mov bp,a
 178  003E  0700     R  	mov a,_QMsgPost_2[4]
 178  003F  0082        	mov ir,a
 178  0040  1483        	inc mp
 178  0041  0700     R  	mov a,_QMsgPost_2[5]
 178  0042  0082        	mov ir,a
 179  0043              #line 179 "F:\SVNRepo\Project\BS82D20A_AOPU_5KEY\USER_PROGRAM\QMsg.c"
 179  0043  1480     R  	inc _g_QMsg[4]
 181  0044              #line 181 "F:\SVNRepo\Project\BS82D20A_AOPU_5KEY\USER_PROGRAM\QMsg.c"
 181  0044  1480     R  	inc _g_QMsg[6]
 183  0045              #line 183 "F:\SVNRepo\Project\BS82D20A_AOPU_5KEY\USER_PROGRAM\QMsg.c"
 183  0045  1F00     E  	clr ra
 183  0046  2800     R  	jmp _L13
 183  0047              _L15:
 169  0047              #line 169 "F:\SVNRepo\Project\BS82D20A_AOPU_5KEY\USER_PROGRAM\QMsg.c"
文件：QMsg.c       编译器版本 HGASM 0202 页次7

 169  0047  0F01        	mov a,1
 169  0048  0080     E  	mov ra,a
 169  0049  2800     R  	jmp _L13
 169  004A              _L16:
 185  004A              #line 185 "F:\SVNRepo\Project\BS82D20A_AOPU_5KEY\USER_PROGRAM\QMsg.c"
 185  004A  0F02        	mov a,2
 185  004B  0080     E  	mov ra,a
 185  004C              _L13:
 186  004C              #line 186 "F:\SVNRepo\Project\BS82D20A_AOPU_5KEY\USER_PROGRAM\QMsg.c"
 186  004C  0700     E  	mov a,ra
 186  004D  0003        	ret
 186  004E              _QMsgPost endp
 186  004E              #line 186 "F:\SVNRepo\Project\BS82D20A_AOPU_5KEY\USER_PROGRAM\QMsg.c"
 186  004E              #pragma debug scope 1 1
 186  004E              public _QMsgPend
 186  004E              #pragma debug scope 5 1
 189  004E              #line 189 "F:\SVNRepo\Project\BS82D20A_AOPU_5KEY\USER_PROGRAM\QMsg.c"
 189  0000              _QMsgPend .section 'code'
 189  0000              _QMsgPend proc
 189  0000              public _QMsgPend_2
 189  0000  0004[           local _QMsgPend_2 db 4 dup(?)	; 4,0
            00
            ]
 189  0004              #pragma debug struct_end
 189  0004              #pragma debug struct_end
 189  0004              #pragma debug struct_end
 189  0004              #pragma debug struct_end
 189  0004              #pragma debug pointer 55 54 5
 189  0004              #pragma debug pointer 55 54 5
 189  0004              #pragma debug variable 55 5 _QMsgPend_2+0 "this"
 189  0004              #pragma debug pointer 56 53 5
 189  0004              #pragma debug pointer 56 53 5
 189  0004              #pragma debug variable 56 5 _QMsgPend_2+2 "pMsg"
 190  0004              #line 190 "F:\SVNRepo\Project\BS82D20A_AOPU_5KEY\USER_PROGRAM\QMsg.c"
 190  0000  0700     R  	mov a,_QMsgPend_2[0]
 190  0001  0500     R  	or a,_QMsgPend_2[1]
 190  0002  3D0A        	sz z
 190  0003  2800     R  	jmp _L20
 194  0004              #line 194 "F:\SVNRepo\Project\BS82D20A_AOPU_5KEY\USER_PROGRAM\QMsg.c"
 194  0004  0700     R  	mov a,_QMsgPend_2[2]
 194  0005  0500     R  	or a,_QMsgPend_2[3]
 194  0006  3D0A        	sz z
 194  0007  2800     R  	jmp _L21
 198  0008              #line 198 "F:\SVNRepo\Project\BS82D20A_AOPU_5KEY\USER_PROGRAM\QMsg.c"
 198  0008  1080     R  	sz _g_QMsg[6]
 198  0009  2800     R  	jmp _LI2
 198  000A  2800     R  	jmp _L22
 198  000B              _LI2:
 200  000B              #line 200 "F:\SVNRepo\Project\BS82D20A_AOPU_5KEY\USER_PROGRAM\QMsg.c"
 200  000B  0700     R  	mov a,_g_QMsg[5]
 200  000C  0200     R  	sub a,_g_QMsg[7]
 200  000D  380A        	snz c
 200  000E  2800     R  	jmp _L19
 202  000F              #line 202 "F:\SVNRepo\Project\BS82D20A_AOPU_5KEY\USER_PROGRAM\QMsg.c"
 202  000F  1F00     R  	clr _g_QMsg[5]
 202  0010              _L19:
 204  0010              #line 204 "F:\SVNRepo\Project\BS82D20A_AOPU_5KEY\USER_PROGRAM\QMsg.c"
 204  0010  0700     R  	mov a,_g_QMsg[0]
 204  0011  0080     E  	mov rb,a
 204  0012  0700     R  	mov a,_g_QMsg[1]
文件：QMsg.c       编译器版本 HGASM 0202 页次8

 204  0013  0080     E  	mov rc,a
 204  0014  0700     R  	mov a,_g_QMsg[5]
 204  0015  0080     E  	mov rd,a
 204  0016  1F00     E  	clr re
 204  0017  340A        	clr c
 204  0018  1A80     E  	rlc rd
 204  0019  1A80     E  	rlc re
 204  001A  340A        	clr c
 204  001B  1A80     E  	rlc rd
 204  001C  1A80     E  	rlc re
 204  001D  0700     E  	mov a,rd
 204  001E  0300     E  	add a,rb
 204  001F  0083        	mov mp,a
 204  0020  0700     E  	mov a,re
 204  0021  1300     E  	adc a,rc
 204  0022  0081        	mov sbp,a
 204  0023  2000     E  	call _Crom2Prom
 204  0024  0080     E  	mov rd,a
 204  0025  2000     E  	call _Crom2PromNext
 204  0026  0080     E  	mov re,a
 204  0027  0700     R  	mov a,_QMsgPend_2[2]
 204  0028  0083        	mov mp,a
 204  0029  0700     R  	mov a,_QMsgPend_2[3]
 204  002A  0081        	mov sbp,a
 204  002B  0701        	mov a,sbp
 204  002C  0084        	mov bp,a
 204  002D  0700     E  	mov a,rd
 204  002E  0082        	mov ir,a
 204  002F  1483        	inc mp
 204  0030  0700     E  	mov a,re
 204  0031  0082        	mov ir,a
 205  0032              #line 205 "F:\SVNRepo\Project\BS82D20A_AOPU_5KEY\USER_PROGRAM\QMsg.c"
 205  0032  0700     R  	mov a,_g_QMsg[5]
 205  0033  0080     E  	mov rd,a
 205  0034  1F00     E  	clr re
 205  0035  340A        	clr c
 205  0036  1A80     E  	rlc rd
 205  0037  1A80     E  	rlc re
 205  0038  340A        	clr c
 205  0039  1A80     E  	rlc rd
 205  003A  1A80     E  	rlc re
 205  003B  0700     E  	mov a,rb
 205  003C  0380     E  	addm a,rd
 205  003D  0700     E  	mov a,rc
 205  003E  1380     E  	adcm a,re
 205  003F  0F02        	mov a,2
 205  0040  0300     E  	add a,rd
 205  0041  0083        	mov mp,a
 205  0042  0F00        	mov a,0
 205  0043  1300     E  	adc a,re
 205  0044  0081        	mov sbp,a
 205  0045  2000     E  	call _Crom2Prom
 205  0046  0080     E  	mov rd,a
 205  0047  2000     E  	call _Crom2PromNext
 205  0048  0080     E  	mov re,a
 205  0049  0F02        	mov a,2
 205  004A  0300     R  	add a,_QMsgPend_2[2]
 205  004B  0083        	mov mp,a
 205  004C  0F00        	mov a,0
 205  004D  1300     R  	adc a,_QMsgPend_2[3]
文件：QMsg.c       编译器版本 HGASM 0202 页次9

 205  004E  0081        	mov sbp,a
 205  004F  0701        	mov a,sbp
 205  0050  0084        	mov bp,a
 205  0051  0700     E  	mov a,rd
 205  0052  0082        	mov ir,a
 205  0053  1483        	inc mp
 205  0054  0700     E  	mov a,re
 205  0055  0082        	mov ir,a
 206  0056              #line 206 "F:\SVNRepo\Project\BS82D20A_AOPU_5KEY\USER_PROGRAM\QMsg.c"
 206  0056  0700     R  	mov a,_g_QMsg[5]
 206  0057  0080     E  	mov ra,a
 206  0058  0700     E  	mov a,ra
 206  0059  0080     E  	mov rd,a
 206  005A  1F00     E  	clr re
 206  005B  340A        	clr c
 206  005C  1A80     E  	rlc rd
 206  005D  1A80     E  	rlc re
 206  005E  340A        	clr c
 206  005F  1A80     E  	rlc rd
 206  0060  1A80     E  	rlc re
 206  0061  0700     E  	mov a,rd
 206  0062  0380     E  	addm a,rb
 206  0063  0700     E  	mov a,re
 206  0064  1380     E  	adcm a,rc
 206  0065  0700     E  	mov a,rb
 206  0066  0083        	mov mp,a
 206  0067  0700     E  	mov a,rc
 206  0068  0081        	mov sbp,a
 206  0069  2000     E  	call _Crom2Prom
 206  006A  0080     E  	mov rd,a
 206  006B  2000     E  	call _Crom2PromNext
 206  006C  0080     E  	mov re,a
 206  006D  0700     E  	mov a,rd
 206  006E  0080     R  	mov _g_Msg[0],a
 206  006F  0700     E  	mov a,re
 206  0070  0080     R  	mov _g_Msg[1],a
 207  0071              #line 207 "F:\SVNRepo\Project\BS82D20A_AOPU_5KEY\USER_PROGRAM\QMsg.c"
 207  0071  0F02        	mov a,2
 207  0072  0300     E  	add a,rb
 207  0073  0083        	mov mp,a
 207  0074  0F00        	mov a,0
 207  0075  1300     E  	adc a,rc
 207  0076  0081        	mov sbp,a
 207  0077  2000     E  	call _Crom2Prom
 207  0078  0080     E  	mov rb,a
 207  0079  2000     E  	call _Crom2PromNext
 207  007A  0080     E  	mov rc,a
 207  007B  0700     E  	mov a,rb
 207  007C  0080     R  	mov _g_Msg[2],a
 207  007D  0700     E  	mov a,rc
 207  007E  0080     R  	mov _g_Msg[3],a
 208  007F              #line 208 "F:\SVNRepo\Project\BS82D20A_AOPU_5KEY\USER_PROGRAM\QMsg.c"
 208  007F  1400     E  	inca ra
 208  0080  0080     R  	mov _g_QMsg[5],a
 210  0081              #line 210 "F:\SVNRepo\Project\BS82D20A_AOPU_5KEY\USER_PROGRAM\QMsg.c"
 210  0081  1580     R  	dec _g_QMsg[6]
 212  0082              #line 212 "F:\SVNRepo\Project\BS82D20A_AOPU_5KEY\USER_PROGRAM\QMsg.c"
 212  0082  1F00     E  	clr ra
 212  0083  2800     R  	jmp _L18
 212  0084              _L20:
文件：QMsg.c       编译器版本 HGASM 0202 页次10

 192  0084              #line 192 "F:\SVNRepo\Project\BS82D20A_AOPU_5KEY\USER_PROGRAM\QMsg.c"
 192  0084  0F01        	mov a,1
 192  0085  0080     E  	mov ra,a
 192  0086  2800     R  	jmp _L18
 192  0087              _L21:
 196  0087              #line 196 "F:\SVNRepo\Project\BS82D20A_AOPU_5KEY\USER_PROGRAM\QMsg.c"
 196  0087  0F02        	mov a,2
 196  0088  0080     E  	mov ra,a
 196  0089  2800     R  	jmp _L18
 196  008A              _L22:
 214  008A              #line 214 "F:\SVNRepo\Project\BS82D20A_AOPU_5KEY\USER_PROGRAM\QMsg.c"
 214  008A  0F03        	mov a,3
 214  008B  0080     E  	mov ra,a
 214  008C              _L18:
 215  008C              #line 215 "F:\SVNRepo\Project\BS82D20A_AOPU_5KEY\USER_PROGRAM\QMsg.c"
 215  008C  0700     E  	mov a,ra
 215  008D  0003        	ret
 215  008E              _QMsgPend endp
 215  008E              #line 215 "F:\SVNRepo\Project\BS82D20A_AOPU_5KEY\USER_PROGRAM\QMsg.c"
 215  008E              #pragma debug scope 1 1
 215  008E              public _QMsgSize
 215  008E              #pragma debug scope 6 1
 218  008E              #line 218 "F:\SVNRepo\Project\BS82D20A_AOPU_5KEY\USER_PROGRAM\QMsg.c"
 218  0000              _QMsgSize .section 'code'
 218  0000              _QMsgSize proc
 218  0000              public _QMsgSize_2
 218  0000  0002[           local _QMsgSize_2 db 2 dup(?)	; 2,0
            00
            ]
 218  0002              #pragma debug struct_end
 218  0002              #pragma debug struct_end
 218  0002              #pragma debug struct_end
 218  0002              #pragma debug struct_end
 218  0002              #pragma debug pointer 59 58 6
 218  0002              #pragma debug pointer 59 58 6
 218  0002              #pragma debug variable 59 6 _QMsgSize_2+0 "this"
 219  0002              #line 219 "F:\SVNRepo\Project\BS82D20A_AOPU_5KEY\USER_PROGRAM\QMsg.c"
 219  0000  0700     R  	mov a,_QMsgSize_2[0]
 219  0001  0500     R  	or a,_QMsgSize_2[1]
 219  0002  3D0A        	sz z
 219  0003  2800     R  	jmp _L25
 223  0004              #line 223 "F:\SVNRepo\Project\BS82D20A_AOPU_5KEY\USER_PROGRAM\QMsg.c"
 223  0004  0700     R  	mov a,_g_QMsg[6]
 223  0005  0080     E  	mov ra,a
 223  0006  2800     R  	jmp _L24
 223  0007              _L25:
 221  0007              #line 221 "F:\SVNRepo\Project\BS82D20A_AOPU_5KEY\USER_PROGRAM\QMsg.c"
 221  0007  1F00     E  	clr ra
 221  0008              _L24:
 224  0008              #line 224 "F:\SVNRepo\Project\BS82D20A_AOPU_5KEY\USER_PROGRAM\QMsg.c"
 224  0008  0700     E  	mov a,ra
 224  0009  0003        	ret
 224  000A              _QMsgSize endp
 224  000A              #line 224 "F:\SVNRepo\Project\BS82D20A_AOPU_5KEY\USER_PROGRAM\QMsg.c"
 224  000A              #pragma debug scope 1 1
 224  000A              public _QMsgCapacity
 224  000A              #pragma debug scope 7 1
 226  000A              #line 226 "F:\SVNRepo\Project\BS82D20A_AOPU_5KEY\USER_PROGRAM\QMsg.c"
 226  0000              _QMsgCapacity .section 'code'
 226  0000              _QMsgCapacity proc
文件：QMsg.c       编译器版本 HGASM 0202 页次11

 226  0000              public _QMsgCapacity_2
 226  0000  0002[           local _QMsgCapacity_2 db 2 dup(?)	; 2,0
            00
            ]
 226  0002              #pragma debug struct_end
 226  0002              #pragma debug struct_end
 226  0002              #pragma debug struct_end
 226  0002              #pragma debug struct_end
 226  0002              #pragma debug pointer 62 61 7
 226  0002              #pragma debug pointer 62 61 7
 226  0002              #pragma debug variable 62 7 _QMsgCapacity_2+0 "this"
 227  0002              #line 227 "F:\SVNRepo\Project\BS82D20A_AOPU_5KEY\USER_PROGRAM\QMsg.c"
 227  0000  0700     R  	mov a,_QMsgCapacity_2[0]
 227  0001  0500     R  	or a,_QMsgCapacity_2[1]
 227  0002  3D0A        	sz z
 227  0003  2800     R  	jmp _L28
 231  0004              #line 231 "F:\SVNRepo\Project\BS82D20A_AOPU_5KEY\USER_PROGRAM\QMsg.c"
 231  0004  0700     R  	mov a,_g_QMsg[7]
 231  0005  0080     E  	mov ra,a
 231  0006  2800     R  	jmp _L27
 231  0007              _L28:
 229  0007              #line 229 "F:\SVNRepo\Project\BS82D20A_AOPU_5KEY\USER_PROGRAM\QMsg.c"
 229  0007  1F00     E  	clr ra
 229  0008              _L27:
 232  0008              #line 232 "F:\SVNRepo\Project\BS82D20A_AOPU_5KEY\USER_PROGRAM\QMsg.c"
 232  0008  0700     E  	mov a,ra
 232  0009  0003        	ret
 232  000A              _QMsgCapacity endp
 232  000A              #line 232 "F:\SVNRepo\Project\BS82D20A_AOPU_5KEY\USER_PROGRAM\QMsg.c"
 232  000A              #pragma debug scope 1 1

  33  000A              #line 33 "F:\SVNRepo\Project\BS82D20A_AOPU_5KEY\USER_PROGRAM\QMsg.h"
  33  000A              public _g_Msg
  33  0000              @HCCINIT0 .section 'data'
  33  0000  0004[       _g_Msg	db 4 dup(0)
            00
            ]
  33  0004              #pragma debug struct_end
  33  0004              #pragma debug struct_end
  33  0004              #pragma debug variable 63 1 _g_Msg "g_Msg"
  33  0004              
  33  0000              @HCCINIT .section 'data'
  32  0000              #line 32 "F:\SVNRepo\Project\BS82D20A_AOPU_5KEY\USER_PROGRAM\QMsg.h"
  32  0000              public _g_QMsg
  32  0004              @HCCINIT0 .section 'data'
  32  0004  0008[       _g_QMsg	db 8 dup(0)
            00
            ]
  32  000C              #pragma debug struct_end
  32  000C              #pragma debug struct_end
  32  000C              #pragma debug struct_end
  32  000C              #pragma debug struct_end
  32  000C              #pragma debug variable 65 1 _g_QMsg "g_QMsg"
  32  000C              
  32  0000              @HCCINIT .section 'data'
  31  0000              #line 31 "F:\SVNRepo\Project\BS82D20A_AOPU_5KEY\USER_PROGRAM\QMsg.h"
  31  0000              public _g_MsgArray
  31  000C              @HCCINIT0 .section 'data'
  31  000C  0014[       _g_MsgArray	db 20 dup(0)
            00
文件：QMsg.h       编译器版本 HGASM 0202 页次12

            ]
  31  0020              #pragma debug array 66 64 5 1
  31  0020              #pragma debug array 66 64 5 1
  31  0020              #pragma debug variable 66 1 _g_MsgArray "g_MsgArray"
  31  0020              
  31  0000              @HCCINIT .section 'data'
  31  0000              
  31  0000              ; 
  31  0000              ; Generated by holtek-gcc v3.18, Wed Aug 01 17:41:28 2018
  31  0000              ; Rebuild 126
  31  0000              ; end of file


        0 Errors, 0