文件：TimerUnit.h  编译器版本 HGASM 0202 页次1


   1  0000              ; Generated by holtek-gcc v3.18, Wed Aug 01 17:41:28 2018
   2  0000              ; 
   3  0000              ; Configuration:
   4  0000              ;       without long instruction
   5  0000              ;       Single ROM, Multi-RAM
   6  0000              ;       bits_per_rom_unit:16
   7  0000              ;       with mp1
   8  0000              ;       with tbhp, address(0x9)
   9  0000              ;          Use tabrd-const
  10  0000              ;       
  11  0000              ;       
  12  0000              ;       
  13  0000              ; use 'tabrdc' instead of 'tabrd'
  14  0000              ;       
  15  0000              
  16  0000              #pragma translator "holtek-gcc 4.6.4" "3.18" "build 20130711"
  17  0000              ; Rebuild 126
  18  0000              
  19  0000              ir equ [2]
  20  0000              mp equ [3]
  21  0000              sbp equ [1]
  22  0000              acc equ [5]
  23  0000              bp equ [4]
  24  0000              tblp equ [7]
  25  0000              tbhp equ [9]
  26  0000              status equ [10]
  27  0000              c equ [10].0
  28  0000              ac equ [10].1
  29  0000              z equ [10].2
  30  0000              ov equ [10].3
  31  0000              intc equ [11]
  32  0000              
  33  0000              extern ra:byte
  34  0000              extern rb:byte
  35  0000              extern rc:byte
  36  0000              extern rd:byte
  37  0000              extern re:byte
  38  0000              extern rf:byte
  39  0000              extern rg:byte
  40  0000              extern rh:byte
  41  0000              extern _Crom2Prom:near
  42  0000              extern _Crom2PromNext:near
  43  0000              
  44  0000              RAMBANK 0 @HCCINIT, @HCCINIT0
  45  0000              
  46  0000              RAMBANK 0 @BITDATASEC, @BITDATASEC1
  47  0000              @HCCINIT	.section 'data'
  48  0000              @HCCINIT0	.section 'data'
  49  0000              @BITDATASEC	 .section 'data'
  50  0000              @BITDATASEC1	 .section 'data'
  51  0000              
  52  0000              #pragma debug scope 1 1
  53  0000              public _SysTimerUnitServer
  54  0000              #pragma debug scope 2 1

   7  0000              #line 7 "F:\SVNRepo\Project\BS82D20A_AOPU_5KEY\USER_PROGRAM\TimerUnit.c"
   7  0000              _SysTimerUnitServer .section 'code'
   7  0000              _SysTimerUnitServer proc
   7  0000  000B[           local _SysTimerUnitServer_2 db 11 dup(?)	; 0,11
文件：TimerUnit.c  编译器版本 HGASM 0202 页次2

            00
            ]
   7  000B              #pragma debug variable 8 2 _SysTimerUnitServer_2+2 "i"
   9  000B              #line 9 "F:\SVNRepo\Project\BS82D20A_AOPU_5KEY\USER_PROGRAM\TimerUnit.c"
   9  0000  1F00     R  	clr _SysTimerUnitServer_2[2]
   9  0001              _L2:
   9  0001              #line 9 "F:\SVNRepo\Project\BS82D20A_AOPU_5KEY\USER_PROGRAM\TimerUnit.c"
   9  0001  0700     R  	mov a,_SysTimerUnitServer_2[2]
   9  0002  0200     R  	sub a,_g_TimerServer[10]
   9  0003  3C0A        	sz c
   9  0004  2800     R  	jmp _L13
  11  0005              #line 11 "F:\SVNRepo\Project\BS82D20A_AOPU_5KEY\USER_PROGRAM\TimerUnit.c"
  11  0005  0700     R  	mov a,_SysTimerUnitServer_2[2]
  11  0006  0080     R  	mov _SysTimerUnitServer_2[3],a
  11  0007  1F00     R  	clr _SysTimerUnitServer_2[4]
  11  0008  340A        	clr c
  11  0009  1A00     R  	rlca _SysTimerUnitServer_2[3]
  11  000A  0080     E  	mov rb,a
  11  000B  1A00     R  	rlca _SysTimerUnitServer_2[4]
  11  000C  0080     E  	mov rc,a
  11  000D  340A        	clr c
  11  000E  1A80     E  	rlc rb
  11  000F  1A80     E  	rlc rc
  11  0010  0700     R  	mov a,_SysTimerUnitServer_2[3]
  11  0011  0380     E  	addm a,rb
  11  0012  0700     R  	mov a,_SysTimerUnitServer_2[4]
  11  0013  1380     E  	adcm a,rc
  11  0014  340A        	clr c
  11  0015  1A00     E  	rlca rb
  11  0016  0080     R  	mov _SysTimerUnitServer_2[0],a
  11  0017  1A00     E  	rlca rc
  11  0018  0080     R  	mov _SysTimerUnitServer_2[1],a
  11  0019  0F00     R  	mov a,low (offset _g_TimerServer+6)
  11  001A  0300     R  	add a,_SysTimerUnitServer_2[0]
  11  001B  0080     R  	mov _SysTimerUnitServer_2[5],a
  11  001C  0F00     R  	mov a,high (offset _g_TimerServer+6)
  11  001D  1300     R  	adc a,_SysTimerUnitServer_2[1]
  11  001E  0080     R  	mov _SysTimerUnitServer_2[6],a
  11  001F  0700     R  	mov a,_SysTimerUnitServer_2[5]
  11  0020  0083        	mov mp,a
  11  0021  0700     R  	mov a,_SysTimerUnitServer_2[6]
  11  0022  0081        	mov sbp,a
  11  0023  2000     E  	call _Crom2Prom
  11  0024  0080     E  	mov rb,a
  11  0025  2000     E  	call _Crom2PromNext
  11  0026  0080     E  	mov rc,a
  11  0027  0700     E  	mov a,rb
  11  0028  0500     E  	or a,rc
  11  0029  3D0A        	sz z
  11  002A  2800     R  	jmp _L3
  13  002B              #line 13 "F:\SVNRepo\Project\BS82D20A_AOPU_5KEY\USER_PROGRAM\TimerUnit.c"
  13  002B  0F00     R  	mov a,low (offset _g_TimerServer+9)
  13  002C  0300     R  	add a,_SysTimerUnitServer_2[0]
  13  002D  0083        	mov mp,a
  13  002E  0F00     R  	mov a,high (offset _g_TimerServer+9)
  13  002F  1300     R  	adc a,_SysTimerUnitServer_2[1]
  13  0030  0081        	mov sbp,a
  13  0031  2000     E  	call _Crom2Prom
  13  0032  0080     E  	mov ra,a
  13  0033  1080     E  	sz ra
文件：TimerUnit.c  编译器版本 HGASM 0202 页次3

  13  0034  2800     R  	jmp _LI1
  13  0035  2800     R  	jmp _L5
  13  0036              _LI1:
  19  0036              #line 19 "F:\SVNRepo\Project\BS82D20A_AOPU_5KEY\USER_PROGRAM\TimerUnit.c"
  19  0036  0FFF        	mov a,255
  19  0037  0380     E  	addm a,rb
  19  0038  0FFF        	mov a,255
  19  0039  1380     E  	adcm a,rc
  19  003A  0700     R  	mov a,_SysTimerUnitServer_2[5]
  19  003B  0083        	mov mp,a
  19  003C  0700     R  	mov a,_SysTimerUnitServer_2[6]
  19  003D  0081        	mov sbp,a
  19  003E  0701        	mov a,sbp
  19  003F  0084        	mov bp,a
  19  0040  0700     E  	mov a,rb
  19  0041  0082        	mov ir,a
  19  0042  1483        	inc mp
  19  0043  0700     E  	mov a,rc
  19  0044  0082        	mov ir,a
  19  0045  2800     R  	jmp _L5
  19  0046              _L3:
  25  0046              #line 25 "F:\SVNRepo\Project\BS82D20A_AOPU_5KEY\USER_PROGRAM\TimerUnit.c"
  25  0046  0F00     R  	mov a,low (offset _g_TimerServer+2)
  25  0047  0300     R  	add a,_SysTimerUnitServer_2[0]
  25  0048  0080     R  	mov _SysTimerUnitServer_2[7],a
  25  0049  0F00     R  	mov a,high (offset _g_TimerServer+2)
  25  004A  1300     R  	adc a,_SysTimerUnitServer_2[1]
  25  004B  0080     R  	mov _SysTimerUnitServer_2[8],a
  25  004C  0700     R  	mov a,_SysTimerUnitServer_2[7]
  25  004D  0083        	mov mp,a
  25  004E  0700     R  	mov a,_SysTimerUnitServer_2[8]
  25  004F  0081        	mov sbp,a
  25  0050  2000     E  	call _Crom2Prom
  25  0051  0080     E  	mov _QMsgPost_2[2],a
  25  0052  2000     E  	call _Crom2PromNext
  25  0053  0080     E  	mov _QMsgPost_2[3],a
  25  0054  2000     E  	call _Crom2PromNext
  25  0055  0080     E  	mov _QMsgPost_2[4],a
  25  0056  2000     E  	call _Crom2PromNext
  25  0057  0080     E  	mov _QMsgPost_2[5],a
  25  0058  0F00     R  	mov a,low offset _g_TimerServer
  25  0059  0300     R  	add a,_SysTimerUnitServer_2[0]
  25  005A  0080     R  	mov _SysTimerUnitServer_2[9],a
  25  005B  0F00     R  	mov a,high offset _g_TimerServer
  25  005C  1300     R  	adc a,_SysTimerUnitServer_2[1]
  25  005D  0080     R  	mov _SysTimerUnitServer_2[10],a
  25  005E  0700     R  	mov a,_SysTimerUnitServer_2[9]
  25  005F  0083        	mov mp,a
  25  0060  0700     R  	mov a,_SysTimerUnitServer_2[10]
  25  0061  0081        	mov sbp,a
  25  0062  2000     E  	call _Crom2Prom
  25  0063  0080     E  	mov _QMsgPost_2[0],a
  25  0064  2000     E  	call _Crom2PromNext
  25  0065  0080     E  	mov _QMsgPost_2[1],a
  25  0066  2000     E  	call _QMsgPost
  27  0067              #line 27 "F:\SVNRepo\Project\BS82D20A_AOPU_5KEY\USER_PROGRAM\TimerUnit.c"
  27  0067  0700     R  	mov a,_g_TimerServer[10]
  27  0068  0080     E  	mov ra,a
  27  0069  0FFF        	mov a,255
  27  006A  0300     E  	add a,ra
文件：TimerUnit.c  编译器版本 HGASM 0202 页次4

  27  006B  0080     E  	mov rb,a
  27  006C  0FFF        	mov a,255
  27  006D  1F00     E  	clr rc
  27  006E  1380     E  	adcm a,rc
  27  006F  0700     R  	mov a,_SysTimerUnitServer_2[3]
  27  0070  0400     E  	xor a,rb
  27  0071  0700     R  	mov a,_SysTimerUnitServer_2[4]
  27  0072  3D0A        	sz z
  27  0073  0400     E  	xor a,rc
  27  0074  3D0A        	sz z
  27  0075  2800     R  	jmp _L6
  29  0076              #line 29 "F:\SVNRepo\Project\BS82D20A_AOPU_5KEY\USER_PROGRAM\TimerUnit.c"
  29  0076  340A        	clr c
  29  0077  1A00     E  	rlca rb
  29  0078  0080     E  	mov rd,a
  29  0079  1A00     E  	rlca rc
  29  007A  0080     E  	mov re,a
  29  007B  340A        	clr c
  29  007C  1A80     E  	rlc rd
  29  007D  1A80     E  	rlc re
  29  007E  0700     E  	mov a,rd
  29  007F  0380     E  	addm a,rb
  29  0080  0700     E  	mov a,re
  29  0081  1380     E  	adcm a,rc
  29  0082  340A        	clr c
  29  0083  1A80     E  	rlc rb
  29  0084  1A80     E  	rlc rc
  29  0085  0F00     R  	mov a,low (offset _g_TimerServer+8)
  29  0086  0300     E  	add a,rb
  29  0087  0083        	mov mp,a
  29  0088  0F00     R  	mov a,high (offset _g_TimerServer+8)
  29  0089  1300     E  	adc a,rc
  29  008A  0081        	mov sbp,a
  29  008B  2000     E  	call _Crom2Prom
  29  008C  0080     E  	mov rd,a
  29  008D  0F00     R  	mov a,low (offset _g_TimerServer+8)
  29  008E  0300     R  	add a,_SysTimerUnitServer_2[0]
  29  008F  0083        	mov mp,a
  29  0090  0F00     R  	mov a,high (offset _g_TimerServer+8)
  29  0091  1300     R  	adc a,_SysTimerUnitServer_2[1]
  29  0092  0081        	mov sbp,a
  29  0093  0701        	mov a,sbp
  29  0094  0084        	mov bp,a
  29  0095  0700     E  	mov a,rd
  29  0096  0082        	mov ir,a
  30  0097              #line 30 "F:\SVNRepo\Project\BS82D20A_AOPU_5KEY\USER_PROGRAM\TimerUnit.c"
  30  0097  0F00     R  	mov a,low offset _g_TimerServer
  30  0098  0300     E  	add a,rb
  30  0099  0083        	mov mp,a
  30  009A  0F00     R  	mov a,high offset _g_TimerServer
  30  009B  1300     E  	adc a,rc
  30  009C  0081        	mov sbp,a
  30  009D  2000     E  	call _Crom2Prom
  30  009E  0080     E  	mov rd,a
  30  009F  2000     E  	call _Crom2PromNext
  30  00A0  0080     E  	mov re,a
  30  00A1  0700     R  	mov a,_SysTimerUnitServer_2[9]
  30  00A2  0083        	mov mp,a
  30  00A3  0700     R  	mov a,_SysTimerUnitServer_2[10]
  30  00A4  0081        	mov sbp,a
文件：TimerUnit.c  编译器版本 HGASM 0202 页次5

  30  00A5  0701        	mov a,sbp
  30  00A6  0084        	mov bp,a
  30  00A7  0700     E  	mov a,rd
  30  00A8  0082        	mov ir,a
  30  00A9  1483        	inc mp
  30  00AA  0700     E  	mov a,re
  30  00AB  0082        	mov ir,a
  31  00AC              #line 31 "F:\SVNRepo\Project\BS82D20A_AOPU_5KEY\USER_PROGRAM\TimerUnit.c"
  31  00AC  0F00     R  	mov a,low (offset _g_TimerServer+2)
  31  00AD  0300     E  	add a,rb
  31  00AE  0083        	mov mp,a
  31  00AF  0F00     R  	mov a,high (offset _g_TimerServer+2)
  31  00B0  1300     E  	adc a,rc
  31  00B1  0081        	mov sbp,a
  31  00B2  2000     E  	call _Crom2Prom
  31  00B3  0080     E  	mov rd,a
  31  00B4  2000     E  	call _Crom2PromNext
  31  00B5  0080     E  	mov re,a
  31  00B6  0700     R  	mov a,_SysTimerUnitServer_2[7]
  31  00B7  0083        	mov mp,a
  31  00B8  0700     R  	mov a,_SysTimerUnitServer_2[8]
  31  00B9  0081        	mov sbp,a
  31  00BA  0701        	mov a,sbp
  31  00BB  0084        	mov bp,a
  31  00BC  0700     E  	mov a,rd
  31  00BD  0082        	mov ir,a
  31  00BE  1483        	inc mp
  31  00BF  0700     E  	mov a,re
  31  00C0  0082        	mov ir,a
  32  00C1              #line 32 "F:\SVNRepo\Project\BS82D20A_AOPU_5KEY\USER_PROGRAM\TimerUnit.c"
  32  00C1  0F00     R  	mov a,low (offset _g_TimerServer+4)
  32  00C2  0300     E  	add a,rb
  32  00C3  0083        	mov mp,a
  32  00C4  0F00     R  	mov a,high (offset _g_TimerServer+4)
  32  00C5  1300     E  	adc a,rc
  32  00C6  0081        	mov sbp,a
  32  00C7  2000     E  	call _Crom2Prom
  32  00C8  0080     E  	mov rd,a
  32  00C9  2000     E  	call _Crom2PromNext
  32  00CA  0080     E  	mov re,a
  32  00CB  0F00     R  	mov a,low (offset _g_TimerServer+4)
  32  00CC  0300     R  	add a,_SysTimerUnitServer_2[0]
  32  00CD  0083        	mov mp,a
  32  00CE  0F00     R  	mov a,high (offset _g_TimerServer+4)
  32  00CF  1300     R  	adc a,_SysTimerUnitServer_2[1]
  32  00D0  0081        	mov sbp,a
  32  00D1  0701        	mov a,sbp
  32  00D2  0084        	mov bp,a
  32  00D3  0700     E  	mov a,rd
  32  00D4  0082        	mov ir,a
  32  00D5  1483        	inc mp
  32  00D6  0700     E  	mov a,re
  32  00D7  0082        	mov ir,a
  33  00D8              #line 33 "F:\SVNRepo\Project\BS82D20A_AOPU_5KEY\USER_PROGRAM\TimerUnit.c"
  33  00D8  0F00     R  	mov a,low (offset _g_TimerServer+6)
  33  00D9  0300     E  	add a,rb
  33  00DA  0083        	mov mp,a
  33  00DB  0F00     R  	mov a,high (offset _g_TimerServer+6)
  33  00DC  1300     E  	adc a,rc
  33  00DD  0081        	mov sbp,a
文件：TimerUnit.c  编译器版本 HGASM 0202 页次6

  33  00DE  2000     E  	call _Crom2Prom
  33  00DF  0080     E  	mov rb,a
  33  00E0  2000     E  	call _Crom2PromNext
  33  00E1  0080     E  	mov rc,a
  33  00E2  0700     R  	mov a,_SysTimerUnitServer_2[5]
  33  00E3  0083        	mov mp,a
  33  00E4  0700     R  	mov a,_SysTimerUnitServer_2[6]
  33  00E5  0081        	mov sbp,a
  33  00E6  0701        	mov a,sbp
  33  00E7  0084        	mov bp,a
  33  00E8  0700     E  	mov a,rb
  33  00E9  0082        	mov ir,a
  33  00EA  1483        	inc mp
  33  00EB  0700     E  	mov a,rc
  33  00EC  0082        	mov ir,a
  33  00ED              _L6:
  35  00ED              #line 35 "F:\SVNRepo\Project\BS82D20A_AOPU_5KEY\USER_PROGRAM\TimerUnit.c"
  35  00ED  1080     E  	sz ra
  35  00EE  2800     R  	jmp _LI2
  35  00EF  2800     R  	jmp _L5
  35  00F0              _LI2:
  37  00F0              #line 37 "F:\SVNRepo\Project\BS82D20A_AOPU_5KEY\USER_PROGRAM\TimerUnit.c"
  37  00F0  1500     E  	deca ra
  37  00F1  0080     R  	mov _g_TimerServer[10],a
  37  00F2              _L5:
   9  00F2              #line 9 "F:\SVNRepo\Project\BS82D20A_AOPU_5KEY\USER_PROGRAM\TimerUnit.c"
   9  00F2  1480     R  	inc _SysTimerUnitServer_2[2]
   9  00F3  2800     R  	jmp _L2
   9  00F4              _L13:
  42  00F4              #line 42 "F:\SVNRepo\Project\BS82D20A_AOPU_5KEY\USER_PROGRAM\TimerUnit.c"
  42  00F4  0F0A        	mov a,10
  42  00F5  0003        	ret
  42  00F6              _SysTimerUnitServer endp
  42  00F6              #line 42 "F:\SVNRepo\Project\BS82D20A_AOPU_5KEY\USER_PROGRAM\TimerUnit.c"
  42  00F6              #pragma debug scope 1 1
  42  00F6              public _TimerUnitInit
  42  00F6              #pragma debug scope 3 1
  99  00F6              #line 99 "F:\SVNRepo\Project\BS82D20A_AOPU_5KEY\USER_PROGRAM\TimerUnit.c"
  99  0000              _TimerUnitInit .section 'code'
  99  0000              _TimerUnitInit proc
  99  0000              public _TimerUnitInit_2
  99  0000  0002[           local _TimerUnitInit_2 db 2 dup(?)	; 2,0
            00
            ]
  99  0002              #pragma debug struct_end
  99  0002              #pragma debug struct_end
  99  0002              #pragma debug struct_end
  99  0002              #pragma debug struct_end
  99  0002              #pragma debug struct_end
  99  0002              #pragma debug struct_end
  99  0002              #pragma debug struct_end
  99  0002              #pragma debug struct_end
  99  0002              #pragma debug pointer 46 45 3
  99  0002              #pragma debug pointer 46 45 3
  99  0002              #pragma debug variable 46 3 _TimerUnitInit_2+0 "this"
 100  0002              #line 100 "F:\SVNRepo\Project\BS82D20A_AOPU_5KEY\USER_PROGRAM\TimerUnit.c"
 100  0000  0700     R  	mov a,_TimerUnitInit_2[0]
 100  0001  0500     R  	or a,_TimerUnitInit_2[1]
 100  0002  3D0A        	sz z
 100  0003  2800     R  	jmp _L14
文件：TimerUnit.c  编译器版本 HGASM 0202 页次7

 104  0004              #line 104 "F:\SVNRepo\Project\BS82D20A_AOPU_5KEY\USER_PROGRAM\TimerUnit.c"
 104  0004  1F00     R  	clr _g_TimerServer[10]
 104  0005              _L14:
 104  0005  0003        	ret
 104  0006              _TimerUnitInit endp
 104  0006              #line 104 "F:\SVNRepo\Project\BS82D20A_AOPU_5KEY\USER_PROGRAM\TimerUnit.c"
 104  0006              #pragma debug scope 1 1
 104  0006              public _TimerUnitDel
 104  0006              #pragma debug scope 4 1
 108  0006              #line 108 "F:\SVNRepo\Project\BS82D20A_AOPU_5KEY\USER_PROGRAM\TimerUnit.c"
 108  0000              _TimerUnitDel .section 'code'
 108  0000              _TimerUnitDel proc
 108  0000              public _TimerUnitDel_2
 108  0000  0005[           local _TimerUnitDel_2 db 5 dup(?)	; 3,2
            00
            ]
 108  0005              #pragma debug struct_end
 108  0005              #pragma debug struct_end
 108  0005              #pragma debug struct_end
 108  0005              #pragma debug struct_end
 108  0005              #pragma debug struct_end
 108  0005              #pragma debug struct_end
 108  0005              #pragma debug struct_end
 108  0005              #pragma debug struct_end
 108  0005              #pragma debug pointer 51 50 4
 108  0005              #pragma debug pointer 51 50 4
 108  0005              #pragma debug variable 51 4 _TimerUnitDel_2+0 "this"
 108  0005              #pragma debug variable 8 4 _TimerUnitDel_2+2 "Id"
 110  0005              #line 110 "F:\SVNRepo\Project\BS82D20A_AOPU_5KEY\USER_PROGRAM\TimerUnit.c"
 110  0000  0700     R  	mov a,_TimerUnitDel_2[0]
 110  0001  0500     R  	or a,_TimerUnitDel_2[1]
 110  0002  3D0A        	sz z
 110  0003  2800     R  	jmp _L16
 110  0004  0700     R  	mov a,_g_TimerServer[10]
 110  0005  0080     E  	mov ra,a
 110  0006              #line 110 "F:\SVNRepo\Project\BS82D20A_AOPU_5KEY\USER_PROGRAM\TimerUnit.c"
 110  0006  1F00     E  	clr rh
 110  0007              _L18:
 114  0007              #line 114 "F:\SVNRepo\Project\BS82D20A_AOPU_5KEY\USER_PROGRAM\TimerUnit.c"
 114  0007  0700     E  	mov a,rh
 114  0008  0200     E  	sub a,ra
 114  0009  380A        	snz c
 114  000A  2800     R  	jmp _L23
 114  000B  0700     E  	mov a,ra
 114  000C  0080     R  	mov _g_TimerServer[10],a
 114  000D  2800     R  	jmp _L16
 114  000E              _L23:
 116  000E              #line 116 "F:\SVNRepo\Project\BS82D20A_AOPU_5KEY\USER_PROGRAM\TimerUnit.c"
 116  000E  0700     E  	mov a,rh
 116  000F  0080     E  	mov rf,a
 116  0010  1F00     E  	clr rg
 116  0011  340A        	clr c
 116  0012  1A00     E  	rlca rf
 116  0013  0080     E  	mov rb,a
 116  0014  1A00     E  	rlca rg
 116  0015  0080     E  	mov rc,a
 116  0016  340A        	clr c
 116  0017  1A80     E  	rlc rb
 116  0018  1A80     E  	rlc rc
 116  0019  0700     E  	mov a,rf
文件：TimerUnit.c  编译器版本 HGASM 0202 页次8

 116  001A  0380     E  	addm a,rb
 116  001B  0700     E  	mov a,rg
 116  001C  1380     E  	adcm a,rc
 116  001D  340A        	clr c
 116  001E  1A80     E  	rlc rb
 116  001F  1A80     E  	rlc rc
 116  0020  0F00     R  	mov a,low (offset _g_TimerServer+8)
 116  0021  0300     E  	add a,rb
 116  0022  0080     R  	mov _TimerUnitDel_2[3],a
 116  0023  0F00     R  	mov a,high (offset _g_TimerServer+8)
 116  0024  1300     E  	adc a,rc
 116  0025  0080     R  	mov _TimerUnitDel_2[4],a
 116  0026  0700     R  	mov a,_TimerUnitDel_2[3]
 116  0027  0083        	mov mp,a
 116  0028  0700     R  	mov a,_TimerUnitDel_2[4]
 116  0029  0081        	mov sbp,a
 116  002A  2000     E  	call _Crom2Prom
 116  002B  0080     E  	mov rd,a
 116  002C  0700     E  	mov a,rd
 116  002D  0200     R  	sub a,_TimerUnitDel_2[2]
 116  002E  390A        	snz z
 116  002F  2800     R  	jmp _L20
 119  0030              #line 119 "F:\SVNRepo\Project\BS82D20A_AOPU_5KEY\USER_PROGRAM\TimerUnit.c"
 119  0030  0FFF        	mov a,255
 119  0031  0300     E  	add a,ra
 119  0032  0080     E  	mov rd,a
 119  0033  0FFF        	mov a,255
 119  0034  1F00     E  	clr re
 119  0035  1380     E  	adcm a,re
 119  0036  0700     E  	mov a,rf
 119  0037  0400     E  	xor a,rd
 119  0038  0700     E  	mov a,rg
 119  0039  3D0A        	sz z
 119  003A  0400     E  	xor a,re
 119  003B  3D0A        	sz z
 119  003C  2800     R  	jmp _L21
 121  003D              #line 121 "F:\SVNRepo\Project\BS82D20A_AOPU_5KEY\USER_PROGRAM\TimerUnit.c"
 121  003D  340A        	clr c
 121  003E  1A00     E  	rlca rd
 121  003F  0080     E  	mov rf,a
 121  0040  1A00     E  	rlca re
 121  0041  0080     E  	mov rg,a
 121  0042  340A        	clr c
 121  0043  1A80     E  	rlc rf
 121  0044  1A80     E  	rlc rg
 121  0045  0700     E  	mov a,rf
 121  0046  0380     E  	addm a,rd
 121  0047  0700     E  	mov a,rg
 121  0048  1380     E  	adcm a,re
 121  0049  340A        	clr c
 121  004A  1A80     E  	rlc rd
 121  004B  1A80     E  	rlc re
 121  004C  0F00     R  	mov a,low (offset _g_TimerServer+8)
 121  004D  0300     E  	add a,rd
 121  004E  0083        	mov mp,a
 121  004F  0F00     R  	mov a,high (offset _g_TimerServer+8)
 121  0050  1300     E  	adc a,re
 121  0051  0081        	mov sbp,a
 121  0052  2000     E  	call _Crom2Prom
 121  0053  0080     E  	mov rf,a
文件：TimerUnit.c  编译器版本 HGASM 0202 页次9

 121  0054  0700     R  	mov a,_TimerUnitDel_2[3]
 121  0055  0083        	mov mp,a
 121  0056  0700     R  	mov a,_TimerUnitDel_2[4]
 121  0057  0081        	mov sbp,a
 121  0058  0701        	mov a,sbp
 121  0059  0084        	mov bp,a
 121  005A  0700     E  	mov a,rf
 121  005B  0082        	mov ir,a
 122  005C              #line 122 "F:\SVNRepo\Project\BS82D20A_AOPU_5KEY\USER_PROGRAM\TimerUnit.c"
 122  005C  0F00     R  	mov a,low offset _g_TimerServer
 122  005D  0300     E  	add a,rd
 122  005E  0083        	mov mp,a
 122  005F  0F00     R  	mov a,high offset _g_TimerServer
 122  0060  1300     E  	adc a,re
 122  0061  0081        	mov sbp,a
 122  0062  2000     E  	call _Crom2Prom
 122  0063  0080     E  	mov rf,a
 122  0064  2000     E  	call _Crom2PromNext
 122  0065  0080     E  	mov rg,a
 122  0066  0F00     R  	mov a,low offset _g_TimerServer
 122  0067  0300     E  	add a,rb
 122  0068  0083        	mov mp,a
 122  0069  0F00     R  	mov a,high offset _g_TimerServer
 122  006A  1300     E  	adc a,rc
 122  006B  0081        	mov sbp,a
 122  006C  0701        	mov a,sbp
 122  006D  0084        	mov bp,a
 122  006E  0700     E  	mov a,rf
 122  006F  0082        	mov ir,a
 122  0070  1483        	inc mp
 122  0071  0700     E  	mov a,rg
 122  0072  0082        	mov ir,a
 123  0073              #line 123 "F:\SVNRepo\Project\BS82D20A_AOPU_5KEY\USER_PROGRAM\TimerUnit.c"
 123  0073  0F00     R  	mov a,low (offset _g_TimerServer+2)
 123  0074  0300     E  	add a,rd
 123  0075  0083        	mov mp,a
 123  0076  0F00     R  	mov a,high (offset _g_TimerServer+2)
 123  0077  1300     E  	adc a,re
 123  0078  0081        	mov sbp,a
 123  0079  2000     E  	call _Crom2Prom
 123  007A  0080     E  	mov rf,a
 123  007B  2000     E  	call _Crom2PromNext
 123  007C  0080     E  	mov rg,a
 123  007D  0F00     R  	mov a,low (offset _g_TimerServer+2)
 123  007E  0300     E  	add a,rb
 123  007F  0083        	mov mp,a
 123  0080  0F00     R  	mov a,high (offset _g_TimerServer+2)
 123  0081  1300     E  	adc a,rc
 123  0082  0081        	mov sbp,a
 123  0083  0701        	mov a,sbp
 123  0084  0084        	mov bp,a
 123  0085  0700     E  	mov a,rf
 123  0086  0082        	mov ir,a
 123  0087  1483        	inc mp
 123  0088  0700     E  	mov a,rg
 123  0089  0082        	mov ir,a
 124  008A              #line 124 "F:\SVNRepo\Project\BS82D20A_AOPU_5KEY\USER_PROGRAM\TimerUnit.c"
 124  008A  0F00     R  	mov a,low (offset _g_TimerServer+4)
 124  008B  0300     E  	add a,rd
 124  008C  0083        	mov mp,a
文件：TimerUnit.c  编译器版本 HGASM 0202 页次10

 124  008D  0F00     R  	mov a,high (offset _g_TimerServer+4)
 124  008E  1300     E  	adc a,re
 124  008F  0081        	mov sbp,a
 124  0090  2000     E  	call _Crom2Prom
 124  0091  0080     E  	mov rf,a
 124  0092  2000     E  	call _Crom2PromNext
 124  0093  0080     E  	mov rg,a
 124  0094  0F00     R  	mov a,low (offset _g_TimerServer+4)
 124  0095  0300     E  	add a,rb
 124  0096  0083        	mov mp,a
 124  0097  0F00     R  	mov a,high (offset _g_TimerServer+4)
 124  0098  1300     E  	adc a,rc
 124  0099  0081        	mov sbp,a
 124  009A  0701        	mov a,sbp
 124  009B  0084        	mov bp,a
 124  009C  0700     E  	mov a,rf
 124  009D  0082        	mov ir,a
 124  009E  1483        	inc mp
 124  009F  0700     E  	mov a,rg
 124  00A0  0082        	mov ir,a
 125  00A1              #line 125 "F:\SVNRepo\Project\BS82D20A_AOPU_5KEY\USER_PROGRAM\TimerUnit.c"
 125  00A1  0F00     R  	mov a,low (offset _g_TimerServer+6)
 125  00A2  0300     E  	add a,rd
 125  00A3  0083        	mov mp,a
 125  00A4  0F00     R  	mov a,high (offset _g_TimerServer+6)
 125  00A5  1300     E  	adc a,re
 125  00A6  0081        	mov sbp,a
 125  00A7  2000     E  	call _Crom2Prom
 125  00A8  0080     E  	mov rf,a
 125  00A9  2000     E  	call _Crom2PromNext
 125  00AA  0080     E  	mov rg,a
 125  00AB  0F00     R  	mov a,low (offset _g_TimerServer+6)
 125  00AC  0300     E  	add a,rb
 125  00AD  0083        	mov mp,a
 125  00AE  0F00     R  	mov a,high (offset _g_TimerServer+6)
 125  00AF  1300     E  	adc a,rc
 125  00B0  0081        	mov sbp,a
 125  00B1  0701        	mov a,sbp
 125  00B2  0084        	mov bp,a
 125  00B3  0700     E  	mov a,rf
 125  00B4  0082        	mov ir,a
 125  00B5  1483        	inc mp
 125  00B6  0700     E  	mov a,rg
 125  00B7  0082        	mov ir,a
 126  00B8              #line 126 "F:\SVNRepo\Project\BS82D20A_AOPU_5KEY\USER_PROGRAM\TimerUnit.c"
 126  00B8  0F00     R  	mov a,low (offset _g_TimerServer+9)
 126  00B9  0300     E  	add a,rd
 126  00BA  0083        	mov mp,a
 126  00BB  0F00     R  	mov a,high (offset _g_TimerServer+9)
 126  00BC  1300     E  	adc a,re
 126  00BD  0081        	mov sbp,a
 126  00BE  2000     E  	call _Crom2Prom
 126  00BF  0080     E  	mov rd,a
 126  00C0  0F00     R  	mov a,low (offset _g_TimerServer+9)
 126  00C1  0300     E  	add a,rb
 126  00C2  0083        	mov mp,a
 126  00C3  0F00     R  	mov a,high (offset _g_TimerServer+9)
 126  00C4  1300     E  	adc a,rc
 126  00C5  0081        	mov sbp,a
 126  00C6  0701        	mov a,sbp
文件：TimerUnit.c  编译器版本 HGASM 0202 页次11

 126  00C7  0084        	mov bp,a
 126  00C8  0700     E  	mov a,rd
 126  00C9  0082        	mov ir,a
 126  00CA              _L21:
 128  00CA              #line 128 "F:\SVNRepo\Project\BS82D20A_AOPU_5KEY\USER_PROGRAM\TimerUnit.c"
 128  00CA  1080     E  	sz ra
 128  00CB  2800     R  	jmp _LI3
 128  00CC  2800     R  	jmp _L20
 128  00CD              _LI3:
 130  00CD              #line 130 "F:\SVNRepo\Project\BS82D20A_AOPU_5KEY\USER_PROGRAM\TimerUnit.c"
 130  00CD  1580     E  	dec ra
 130  00CE              _L20:
 114  00CE              #line 114 "F:\SVNRepo\Project\BS82D20A_AOPU_5KEY\USER_PROGRAM\TimerUnit.c"
 114  00CE  1480     E  	inc rh
 114  00CF  2800     R  	jmp _L18
 114  00D0              _L16:
 114  00D0  0003        	ret
 114  00D1              _TimerUnitDel endp
 114  00D1              #line 114 "F:\SVNRepo\Project\BS82D20A_AOPU_5KEY\USER_PROGRAM\TimerUnit.c"
 114  00D1              #pragma debug scope 1 1
 114  00D1              public _TimerUnitAdd
 114  00D1              #pragma debug scope 5 1
 138  00D1              #line 138 "F:\SVNRepo\Project\BS82D20A_AOPU_5KEY\USER_PROGRAM\TimerUnit.c"
 138  0000              _TimerUnitAdd .section 'code'
 138  0000              _TimerUnitAdd proc
 138  0000              public _TimerUnitAdd_2
 138  0000  0009[           local _TimerUnitAdd_2 db 9 dup(?)	; 9,0
            00
            ]
 138  0009              #pragma debug struct_end
 138  0009              #pragma debug struct_end
 138  0009              #pragma debug struct_end
 138  0009              #pragma debug struct_end
 138  0009              #pragma debug struct_end
 138  0009              #pragma debug struct_end
 138  0009              #pragma debug struct_end
 138  0009              #pragma debug struct_end
 138  0009              #pragma debug pointer 56 55 5
 138  0009              #pragma debug pointer 56 55 5
 138  0009              #pragma debug variable 56 5 _TimerUnitAdd_2+0 "this"
 138  0009              #pragma debug variable 8 5 _TimerUnitAdd_2+2 "Id"
 138  0009              #pragma debug pointer 57 53 5
 138  0009              #pragma debug pointer 57 53 5
 138  0009              #pragma debug variable 57 5 _TimerUnitAdd_2+3 "pqmsg"
 138  0009              #pragma debug pointer 58 52 5
 138  0009              #pragma debug pointer 58 52 5
 138  0009              #pragma debug variable 58 5 _TimerUnitAdd_2+5 "pmsg"
 138  0009              #pragma debug variable 12 5 _TimerUnitAdd_2+7 "TO"
 141  0009              #line 141 "F:\SVNRepo\Project\BS82D20A_AOPU_5KEY\USER_PROGRAM\TimerUnit.c"
 141  0000  0700     R  	mov a,_TimerUnitAdd_2[0]
 141  0001  0500     R  	or a,_TimerUnitAdd_2[1]
 141  0002  3D0A        	sz z
 141  0003  2800     R  	jmp _L29
 141  0004              #line 141 "F:\SVNRepo\Project\BS82D20A_AOPU_5KEY\USER_PROGRAM\TimerUnit.c"
 141  0004  0700     R  	mov a,_TimerUnitAdd_2[5]
 141  0005  0500     R  	or a,_TimerUnitAdd_2[6]
 141  0006  3D0A        	sz z
 141  0007  2800     R  	jmp _L29
 148  0008              #line 148 "F:\SVNRepo\Project\BS82D20A_AOPU_5KEY\USER_PROGRAM\TimerUnit.c"
 148  0008  1080     R  	sz _g_TimerServer[10]
文件：TimerUnit.c  编译器版本 HGASM 0202 页次12

 148  0009  2800     R  	jmp _LI4
 148  000A  2800     R  	jmp _L36
 148  000B              _LI4:
 150  000B              #line 150 "F:\SVNRepo\Project\BS82D20A_AOPU_5KEY\USER_PROGRAM\TimerUnit.c"
 150  000B  0700     R  	mov a,_g_TimerServer[8]
 150  000C  0200     R  	sub a,_TimerUnitAdd_2[2]
 150  000D  390A        	snz z
 150  000E  2800     R  	jmp _L29
 152  000F              #line 152 "F:\SVNRepo\Project\BS82D20A_AOPU_5KEY\USER_PROGRAM\TimerUnit.c"
 152  000F  0700     R  	mov a,_TimerUnitAdd_2[3]
 152  0010  0080     R  	mov _g_TimerServer[0],a
 152  0011  0700     R  	mov a,_TimerUnitAdd_2[4]
 152  0012  0080     R  	mov _g_TimerServer[1],a
 153  0013              #line 153 "F:\SVNRepo\Project\BS82D20A_AOPU_5KEY\USER_PROGRAM\TimerUnit.c"
 153  0013  0700     R  	mov a,_TimerUnitAdd_2[5]
 153  0014  0080     E  	mov rb,a
 153  0015  0700     R  	mov a,_TimerUnitAdd_2[6]
 153  0016  0080     E  	mov rc,a
 153  0017  0700     E  	mov a,rb
 153  0018  0083        	mov mp,a
 153  0019  0700     E  	mov a,rc
 153  001A  0081        	mov sbp,a
 153  001B  2000     E  	call _Crom2Prom
 153  001C  0080     E  	mov rd,a
 153  001D  2000     E  	call _Crom2PromNext
 153  001E  0080     E  	mov re,a
 153  001F  0700     E  	mov a,rd
 153  0020  0080     R  	mov _g_TimerServer[2],a
 153  0021  0700     E  	mov a,re
 153  0022  0080     R  	mov _g_TimerServer[3],a
 154  0023              #line 154 "F:\SVNRepo\Project\BS82D20A_AOPU_5KEY\USER_PROGRAM\TimerUnit.c"
 154  0023  0F02        	mov a,2
 154  0024  0300     E  	add a,rb
 154  0025  0083        	mov mp,a
 154  0026  0F00        	mov a,0
 154  0027  1300     E  	adc a,rc
 154  0028  0081        	mov sbp,a
 154  0029  2000     E  	call _Crom2Prom
 154  002A  0080     E  	mov rb,a
 154  002B  2000     E  	call _Crom2PromNext
 154  002C  0080     E  	mov rc,a
 154  002D  0700     E  	mov a,rb
 154  002E  0080     R  	mov _g_TimerServer[4],a
 154  002F  0700     E  	mov a,rc
 154  0030  0080     R  	mov _g_TimerServer[5],a
 155  0031              #line 155 "F:\SVNRepo\Project\BS82D20A_AOPU_5KEY\USER_PROGRAM\TimerUnit.c"
 155  0031  0700     R  	mov a,_TimerUnitAdd_2[7]
 155  0032  0080     R  	mov _g_TimerServer[6],a
 155  0033  0700     R  	mov a,_TimerUnitAdd_2[8]
 155  0034  0080     R  	mov _g_TimerServer[7],a
 156  0035              #line 156 "F:\SVNRepo\Project\BS82D20A_AOPU_5KEY\USER_PROGRAM\TimerUnit.c"
 156  0035  0F01        	mov a,1
 156  0036  0080     R  	mov _g_TimerServer[9],a
 156  0037  2800     R  	jmp _L29
 156  0038              _L36:
 165  0038              #line 165 "F:\SVNRepo\Project\BS82D20A_AOPU_5KEY\USER_PROGRAM\TimerUnit.c"
 165  0038  0700     R  	mov a,_TimerUnitAdd_2[2]
 165  0039  0080     R  	mov _g_TimerServer[8],a
 166  003A              #line 166 "F:\SVNRepo\Project\BS82D20A_AOPU_5KEY\USER_PROGRAM\TimerUnit.c"
 166  003A  0700     R  	mov a,_TimerUnitAdd_2[3]
文件：TimerUnit.c  编译器版本 HGASM 0202 页次13

 166  003B  0080     R  	mov _g_TimerServer[0],a
 166  003C  0700     R  	mov a,_TimerUnitAdd_2[4]
 166  003D  0080     R  	mov _g_TimerServer[1],a
 167  003E              #line 167 "F:\SVNRepo\Project\BS82D20A_AOPU_5KEY\USER_PROGRAM\TimerUnit.c"
 167  003E  0700     R  	mov a,_TimerUnitAdd_2[5]
 167  003F  0080     E  	mov rb,a
 167  0040  0700     R  	mov a,_TimerUnitAdd_2[6]
 167  0041  0080     E  	mov rc,a
 167  0042  0700     E  	mov a,rb
 167  0043  0083        	mov mp,a
 167  0044  0700     E  	mov a,rc
 167  0045  0081        	mov sbp,a
 167  0046  2000     E  	call _Crom2Prom
 167  0047  0080     E  	mov rd,a
 167  0048  2000     E  	call _Crom2PromNext
 167  0049  0080     E  	mov re,a
 167  004A  0700     E  	mov a,rd
 167  004B  0080     R  	mov _g_TimerServer[2],a
 167  004C  0700     E  	mov a,re
 167  004D  0080     R  	mov _g_TimerServer[3],a
 168  004E              #line 168 "F:\SVNRepo\Project\BS82D20A_AOPU_5KEY\USER_PROGRAM\TimerUnit.c"
 168  004E  0F02        	mov a,2
 168  004F  0300     E  	add a,rb
 168  0050  0083        	mov mp,a
 168  0051  0F00        	mov a,0
 168  0052  1300     E  	adc a,rc
 168  0053  0081        	mov sbp,a
 168  0054  2000     E  	call _Crom2Prom
 168  0055  0080     E  	mov rb,a
 168  0056  2000     E  	call _Crom2PromNext
 168  0057  0080     E  	mov rc,a
 168  0058  0700     E  	mov a,rb
 168  0059  0080     R  	mov _g_TimerServer[4],a
 168  005A  0700     E  	mov a,rc
 168  005B  0080     R  	mov _g_TimerServer[5],a
 169  005C              #line 169 "F:\SVNRepo\Project\BS82D20A_AOPU_5KEY\USER_PROGRAM\TimerUnit.c"
 169  005C  0700     R  	mov a,_TimerUnitAdd_2[7]
 169  005D  0080     R  	mov _g_TimerServer[6],a
 169  005E  0700     R  	mov a,_TimerUnitAdd_2[8]
 169  005F  0080     R  	mov _g_TimerServer[7],a
 170  0060              #line 170 "F:\SVNRepo\Project\BS82D20A_AOPU_5KEY\USER_PROGRAM\TimerUnit.c"
 170  0060  0F01        	mov a,1
 170  0061  0080     R  	mov _g_TimerServer[9],a
 171  0062              #line 171 "F:\SVNRepo\Project\BS82D20A_AOPU_5KEY\USER_PROGRAM\TimerUnit.c"
 171  0062  0F01        	mov a,1
 171  0063  0080     R  	mov _g_TimerServer[10],a
 171  0064              _L29:
 171  0064  0003        	ret
 171  0065              _TimerUnitAdd endp
 171  0065              #line 171 "F:\SVNRepo\Project\BS82D20A_AOPU_5KEY\USER_PROGRAM\TimerUnit.c"
 171  0065              #pragma debug scope 1 1
 171  0065              public _TimerUnitEnable
 171  0065              #pragma debug scope 6 1
 178  0065              #line 178 "F:\SVNRepo\Project\BS82D20A_AOPU_5KEY\USER_PROGRAM\TimerUnit.c"
 178  0000              _TimerUnitEnable .section 'code'
 178  0000              _TimerUnitEnable proc
 178  0000              public _TimerUnitEnable_2
 178  0000  0004[           local _TimerUnitEnable_2 db 4 dup(?)	; 4,0
            00
            ]
文件：TimerUnit.c  编译器版本 HGASM 0202 页次14

 178  0004              #pragma debug struct_end
 178  0004              #pragma debug struct_end
 178  0004              #pragma debug struct_end
 178  0004              #pragma debug struct_end
 178  0004              #pragma debug struct_end
 178  0004              #pragma debug struct_end
 178  0004              #pragma debug struct_end
 178  0004              #pragma debug struct_end
 178  0004              #pragma debug pointer 63 62 6
 178  0004              #pragma debug pointer 63 62 6
 178  0004              #pragma debug variable 63 6 _TimerUnitEnable_2+0 "this"
 178  0004              #pragma debug variable 8 6 _TimerUnitEnable_2+2 "Id"
 178  0004              #pragma debug variable 8 6 _TimerUnitEnable_2+3 "enable"
 179  0004              #line 179 "F:\SVNRepo\Project\BS82D20A_AOPU_5KEY\USER_PROGRAM\TimerUnit.c"
 179  0000  0700     R  	mov a,_TimerUnitEnable_2[0]
 179  0001  0500     R  	or a,_TimerUnitEnable_2[1]
 179  0002  3D0A        	sz z
 179  0003  2800     R  	jmp _L37
 183  0004              #line 183 "F:\SVNRepo\Project\BS82D20A_AOPU_5KEY\USER_PROGRAM\TimerUnit.c"
 183  0004  0700     R  	mov a,_TimerUnitEnable_2[2]
 183  0005  0200     R  	sub a,_g_TimerServer[10]
 183  0006  3C0A        	sz c
 183  0007  2800     R  	jmp _L37
 189  0008              #line 189 "F:\SVNRepo\Project\BS82D20A_AOPU_5KEY\USER_PROGRAM\TimerUnit.c"
 189  0008  0700     R  	mov a,_TimerUnitEnable_2[2]
 189  0009  0080     E  	mov rb,a
 189  000A  1F00     E  	clr rc
 189  000B  340A        	clr c
 189  000C  1A00     E  	rlca rb
 189  000D  0080     E  	mov rd,a
 189  000E  1A00     E  	rlca rc
 189  000F  0080     E  	mov re,a
 189  0010  340A        	clr c
 189  0011  1A80     E  	rlc rd
 189  0012  1A80     E  	rlc re
 189  0013  0700     E  	mov a,rd
 189  0014  0380     E  	addm a,rb
 189  0015  0700     E  	mov a,re
 189  0016  1380     E  	adcm a,rc
 189  0017  340A        	clr c
 189  0018  1A80     E  	rlc rb
 189  0019  1A80     E  	rlc rc
 189  001A  0F00     R  	mov a,low (offset _g_TimerServer+9)
 189  001B  0300     E  	add a,rb
 189  001C  0083        	mov mp,a
 189  001D  0F00     R  	mov a,high (offset _g_TimerServer+9)
 189  001E  1300     E  	adc a,rc
 189  001F  0081        	mov sbp,a
 189  0020  0701        	mov a,sbp
 189  0021  0084        	mov bp,a
 189  0022  0700     R  	mov a,_TimerUnitEnable_2[3]
 189  0023  0082        	mov ir,a
 189  0024              _L37:
 189  0024  0003        	ret
 189  0025              _TimerUnitEnable endp
 189  0025              #line 189 "F:\SVNRepo\Project\BS82D20A_AOPU_5KEY\USER_PROGRAM\TimerUnit.c"
 189  0025              #pragma debug scope 1 1
 189  0025              public _TimerUnitIsExist
 189  0025              #pragma debug scope 7 1
 193  0025              #line 193 "F:\SVNRepo\Project\BS82D20A_AOPU_5KEY\USER_PROGRAM\TimerUnit.c"
文件：TimerUnit.c  编译器版本 HGASM 0202 页次15

 193  0000              _TimerUnitIsExist .section 'code'
 193  0000              _TimerUnitIsExist proc
 193  0000              public _TimerUnitIsExist_2
 193  0000  0003[           local _TimerUnitIsExist_2 db 3 dup(?)	; 3,0
            00
            ]
 193  0003              #pragma debug struct_end
 193  0003              #pragma debug struct_end
 193  0003              #pragma debug struct_end
 193  0003              #pragma debug struct_end
 193  0003              #pragma debug struct_end
 193  0003              #pragma debug struct_end
 193  0003              #pragma debug struct_end
 193  0003              #pragma debug struct_end
 193  0003              #pragma debug pointer 68 67 7
 193  0003              #pragma debug pointer 68 67 7
 193  0003              #pragma debug variable 68 7 _TimerUnitIsExist_2+0 "this"
 193  0003              #pragma debug variable 8 7 _TimerUnitIsExist_2+2 "Id"
 194  0003              #line 194 "F:\SVNRepo\Project\BS82D20A_AOPU_5KEY\USER_PROGRAM\TimerUnit.c"
 194  0000  0700     R  	mov a,_TimerUnitIsExist_2[0]
 194  0001  0500     R  	or a,_TimerUnitIsExist_2[1]
 194  0002  3D0A        	sz z
 194  0003  2800     R  	jmp _L42
 198  0004              #line 198 "F:\SVNRepo\Project\BS82D20A_AOPU_5KEY\USER_PROGRAM\TimerUnit.c"
 198  0004  0700     R  	mov a,_TimerUnitIsExist_2[2]
 198  0005  0200     R  	sub a,_g_TimerServer[10]
 198  0006  3C0A        	sz c
 198  0007  2800     R  	jmp _L42
 203  0008              #line 203 "F:\SVNRepo\Project\BS82D20A_AOPU_5KEY\USER_PROGRAM\TimerUnit.c"
 203  0008  0700     R  	mov a,_TimerUnitIsExist_2[2]
 203  0009  0080     E  	mov rb,a
 203  000A  1F00     E  	clr rc
 203  000B  340A        	clr c
 203  000C  1A00     E  	rlca rb
 203  000D  0080     E  	mov rd,a
 203  000E  1A00     E  	rlca rc
 203  000F  0080     E  	mov re,a
 203  0010  340A        	clr c
 203  0011  1A80     E  	rlc rd
 203  0012  1A80     E  	rlc re
 203  0013  0700     E  	mov a,rd
 203  0014  0380     E  	addm a,rb
 203  0015  0700     E  	mov a,re
 203  0016  1380     E  	adcm a,rc
 203  0017  340A        	clr c
 203  0018  1A80     E  	rlc rb
 203  0019  1A80     E  	rlc rc
 203  001A  0F00     R  	mov a,low (offset _g_TimerServer+6)
 203  001B  0380     E  	addm a,rb
 203  001C  0F00     R  	mov a,high (offset _g_TimerServer+6)
 203  001D  1380     E  	adcm a,rc
 203  001E  0700     E  	mov a,rb
 203  001F  0083        	mov mp,a
 203  0020  0700     E  	mov a,rc
 203  0021  0081        	mov sbp,a
 203  0022  2000     E  	call _Crom2Prom
 203  0023  0080     E  	mov rf,a
 203  0024  2000     E  	call _Crom2PromNext
 203  0025  0080     E  	mov rg,a
 203  0026  0F00        	mov a,0
文件：TimerUnit.c  编译器版本 HGASM 0202 页次16

 203  0027  0280     E  	subm a,rf
 203  0028  0F00        	mov a,0
 203  0029  1280     E  	sbcm a,rg
 203  002A  0700     E  	mov a,rb
 203  002B  0083        	mov mp,a
 203  002C  0700     E  	mov a,rc
 203  002D  0081        	mov sbp,a
 203  002E  2000     E  	call _Crom2Prom
 203  002F  0080     E  	mov rd,a
 203  0030  2000     E  	call _Crom2PromNext
 203  0031  0080     E  	mov re,a
 203  0032  0700     E  	mov a,rg
 203  0033  0500     E  	or a,re
 203  0034  0080     E  	mov rc,a
 203  0035  0700     E  	mov a,rf
 203  0036  0500     E  	or a,rd
 203  0037  0080     E  	mov rb,a
 203  0038  1800     E  	rla rc
 203  0039  0E01        	and a,1
 203  003A  0080     E  	mov ra,a
 203  003B  2800     R  	jmp _L40
 203  003C              _L42:
 196  003C              #line 196 "F:\SVNRepo\Project\BS82D20A_AOPU_5KEY\USER_PROGRAM\TimerUnit.c"
 196  003C  1F00     E  	clr ra
 196  003D              _L40:
 208  003D              #line 208 "F:\SVNRepo\Project\BS82D20A_AOPU_5KEY\USER_PROGRAM\TimerUnit.c"
 208  003D  0700     E  	mov a,ra
 208  003E  0003        	ret
 208  003F              _TimerUnitIsExist endp
 208  003F              #line 208 "F:\SVNRepo\Project\BS82D20A_AOPU_5KEY\USER_PROGRAM\TimerUnit.c"
 208  003F              #pragma debug scope 1 1
 208  003F              public _TimerUnitGetTO
 208  003F              #pragma debug scope 8 1
 210  003F              #line 210 "F:\SVNRepo\Project\BS82D20A_AOPU_5KEY\USER_PROGRAM\TimerUnit.c"
 210  0000              _TimerUnitGetTO .section 'code'
 210  0000              _TimerUnitGetTO proc
 210  0000              public _TimerUnitGetTO_2
 210  0000  0003[           local _TimerUnitGetTO_2 db 3 dup(?)	; 3,0
            00
            ]
 210  0003              #pragma debug struct_end
 210  0003              #pragma debug struct_end
 210  0003              #pragma debug struct_end
 210  0003              #pragma debug struct_end
 210  0003              #pragma debug struct_end
 210  0003              #pragma debug struct_end
 210  0003              #pragma debug struct_end
 210  0003              #pragma debug struct_end
 210  0003              #pragma debug pointer 73 72 8
 210  0003              #pragma debug pointer 73 72 8
 210  0003              #pragma debug variable 73 8 _TimerUnitGetTO_2+0 "this"
 210  0003              #pragma debug variable 8 8 _TimerUnitGetTO_2+2 "Id"
 211  0003              #line 211 "F:\SVNRepo\Project\BS82D20A_AOPU_5KEY\USER_PROGRAM\TimerUnit.c"
 211  0000  0700     R  	mov a,_TimerUnitGetTO_2[0]
 211  0001  0500     R  	or a,_TimerUnitGetTO_2[1]
 211  0002  3D0A        	sz z
 211  0003  2800     R  	jmp _L46
 215  0004              #line 215 "F:\SVNRepo\Project\BS82D20A_AOPU_5KEY\USER_PROGRAM\TimerUnit.c"
 215  0004  0700     R  	mov a,_TimerUnitGetTO_2[2]
 215  0005  0200     R  	sub a,_g_TimerServer[10]
文件：TimerUnit.c  编译器版本 HGASM 0202 页次17

 215  0006  3C0A        	sz c
 215  0007  2800     R  	jmp _L46
 219  0008              #line 219 "F:\SVNRepo\Project\BS82D20A_AOPU_5KEY\USER_PROGRAM\TimerUnit.c"
 219  0008  0700     R  	mov a,_TimerUnitGetTO_2[2]
 219  0009  0080     E  	mov rb,a
 219  000A  1F00     E  	clr rc
 219  000B  340A        	clr c
 219  000C  1A00     E  	rlca rb
 219  000D  0080     E  	mov rd,a
 219  000E  1A00     E  	rlca rc
 219  000F  0080     E  	mov re,a
 219  0010  340A        	clr c
 219  0011  1A80     E  	rlc rd
 219  0012  1A80     E  	rlc re
 219  0013  0700     E  	mov a,rd
 219  0014  0380     E  	addm a,rb
 219  0015  0700     E  	mov a,re
 219  0016  1380     E  	adcm a,rc
 219  0017  340A        	clr c
 219  0018  1A80     E  	rlc rb
 219  0019  1A80     E  	rlc rc
 219  001A  0F00     R  	mov a,low (offset _g_TimerServer+6)
 219  001B  0300     E  	add a,rb
 219  001C  0083        	mov mp,a
 219  001D  0F00     R  	mov a,high (offset _g_TimerServer+6)
 219  001E  1300     E  	adc a,rc
 219  001F  0081        	mov sbp,a
 219  0020  2000     E  	call _Crom2Prom
 219  0021  0080     E  	mov ra,a
 219  0022  2000     E  	call _Crom2PromNext
 219  0023  0080     E  	mov rb,a
 219  0024  2800     R  	jmp _L44
 219  0025              _L46:
 213  0025              #line 213 "F:\SVNRepo\Project\BS82D20A_AOPU_5KEY\USER_PROGRAM\TimerUnit.c"
 213  0025  1F00     E  	clr ra
 213  0026  1F00     E  	clr rb
 213  0027              _L44:
 213  0027  0003        	ret
 213  0028              _TimerUnitGetTO endp
 213  0028              #line 213 "F:\SVNRepo\Project\BS82D20A_AOPU_5KEY\USER_PROGRAM\TimerUnit.c"
 213  0028              #pragma debug scope 1 1

  40  0028              #line 40 "F:\SVNRepo\Project\BS82D20A_AOPU_5KEY\USER_PROGRAM\TimerUnit.h"
  40  0028              public _g_TimerServer
  40  0000              @HCCINIT0 .section 'data'
  40  0000  000B[       _g_TimerServer	db 11 dup(0)
            00
            ]
  40  000B              #pragma debug struct_end
  40  000B              #pragma debug struct_end
  40  000B              #pragma debug struct_end
  40  000B              #pragma debug struct_end
  40  000B              #pragma debug struct_end
  40  000B              #pragma debug struct_end
  40  000B              #pragma debug struct_end
  40  000B              #pragma debug struct_end
  40  000B              #pragma debug variable 77 1 _g_TimerServer "g_TimerServer"
  40  000B              
  40  0000              @HCCINIT .section 'data'
  40  0000              extern _QMsgPost_2:byte
文件：TimerUnit.h  编译器版本 HGASM 0202 页次18

  40  0000              extern _QMsgPost:near
  40  0000              
  40  0000              ; 
  40  0000              ; Generated by holtek-gcc v3.18, Wed Aug 01 17:41:28 2018
  40  0000              ; Rebuild 126
  40  0000              ; end of file


        0 Errors, 0