文件：USER_PROGRAM.C 编译器版本 HGASM 0202 页次1


   1  0000              ; Generated by holtek-gcc v3.18, Thu Aug 02 09:03:51 2018
   2  0000              ; 
   3  0000              ; Configuration:
   4  0000              ;       without long instruction
   5  0000              ;       Single ROM, Multi-RAM
   6  0000              ;       bits_per_rom_unit:16
   7  0000              ;       with mp1
   8  0000              ;       with tbhp, address(0x9)
   9  0000              ;          Use tabrd-const
  10  0000              ;       
  11  0000              ;       
  12  0000              ;       
  13  0000              ; use 'tabrdc' instead of 'tabrd'
  14  0000              ;       
  15  0000              
  16  0000              #pragma translator "holtek-gcc 4.6.4" "3.18" "build 20130711"
  17  0000              ; Rebuild 126
  18  0000              
  19  0000              ir equ [2]
  20  0000              mp equ [3]
  21  0000              sbp equ [1]
  22  0000              acc equ [5]
  23  0000              bp equ [4]
  24  0000              tblp equ [7]
  25  0000              tbhp equ [9]
  26  0000              status equ [10]
  27  0000              c equ [10].0
  28  0000              ac equ [10].1
  29  0000              z equ [10].2
  30  0000              ov equ [10].3
  31  0000              intc equ [11]
  32  0000              
  33  0000              extern ra:byte
  34  0000              extern rb:byte
  35  0000              extern rc:byte
  36  0000              extern rd:byte
  37  0000              extern re:byte
  38  0000              extern rf:byte
  39  0000              extern rg:byte
  40  0000              extern rh:byte
  41  0000              extern _Crom2Prom:near
  42  0000              extern _Crom2PromNext:near
  43  0000              
  44  0000              RAMBANK 0 @HCCINIT, @HCCINIT0
  45  0000              
  46  0000              RAMBANK 0 @BITDATASEC, @BITDATASEC1
  47  0000              @HCCINIT	.section 'data'
  48  0000              @HCCINIT0	.section 'data'
  49  0000              @BITDATASEC	 .section 'data'
  50  0000              @BITDATASEC1	 .section 'data'
  51  0000              
  52  0000              #pragma debug scope 1 1
  53  0000              	extern __DELAY3:near
  54  0000              	extern __DELAYX3:near
  55  0000              	extern __DELAYX6:near
  56  0000              	extern __DELAYY5:near
  57  0000              	extern __DELAYY3:near
  58  0000              	extern _builtin_holtek_delay_2:byte
  59  0000              public _Interrupt_Extemal
文件：USER_PROGRAM.ASM 编译器版本 HGASM 0202 页次2

  60  0000              #pragma debug scope 2 1

  15  0000              #line 15 "F:\SVNRepo\Project\BS82D20A_AOPU_5KEY\USER_PROGRAM\USER_PROGRAM.C"
  15  0000              @Interrupt_Extemal_code .section at 4 'code'
  15  0000  0080     E  	mov r1,a
  15  0001  070A        	mov a,status
  15  0002  0080     E  	mov r2,a
  15  0003  2800     R  	jmp _Interrupt_Extemal
  15  0004              #pragma debug scope 1 1
  15  0004              @dummy4 endp
  15  0004              #pragma debug scope 3 1
  15  0000              _Interrupt_Extemal .section 'code'
  15  0000              _Interrupt_Extemal proc
  16  0000              #line 16 "F:\SVNRepo\Project\BS82D20A_AOPU_5KEY\USER_PROGRAM\USER_PROGRAM.C"
  16  0000              ;# 16 "F:\SVNRepo\Project\BS82D20A_AOPU_5KEY\USER_PROGRAM\USER_PROGRAM.C" 1
  16  0000  0000        	nop
  16  0001  0700     E  	mov a,r2
  16  0002  008A        	mov status,a
  16  0003  0700     E  	mov a,r1
  16  0004  0004        	reti
  16  0005              _Interrupt_Extemal endp
  16  0005              
  16  0005              #line 16 "F:\SVNRepo\Project\BS82D20A_AOPU_5KEY\USER_PROGRAM\USER_PROGRAM.C"
  16  0005              #pragma debug scope 1 1
  16  0005              public _Interrupt_CTM0P
  16  0005              #pragma debug scope 4 1
  25  0005              #line 25 "F:\SVNRepo\Project\BS82D20A_AOPU_5KEY\USER_PROGRAM\USER_PROGRAM.C"
  25  0000              @Interrupt_CTM0P_code .section at 16 'code'
  25  0000  0080     E  	mov r1,a
  25  0001  070A        	mov a,status
  25  0002  0080     E  	mov r2,a
  25  0003  2800     R  	jmp _Interrupt_CTM0P
  25  0004              #pragma debug scope 1 1
  25  0004              @dummy16 endp
  25  0004              #pragma debug scope 5 1
  25  0000              _Interrupt_CTM0P .section 'code'
  25  0000              _Interrupt_CTM0P proc
  26  0000              #line 26 "F:\SVNRepo\Project\BS82D20A_AOPU_5KEY\USER_PROGRAM\USER_PROGRAM.C"
  26  0000              ;# 26 "F:\SVNRepo\Project\BS82D20A_AOPU_5KEY\USER_PROGRAM\USER_PROGRAM.C" 1
  26  0000  0000        	nop
  26  0001  0700     E  	mov a,r2
  26  0002  008A        	mov status,a
  26  0003  0700     E  	mov a,r1
  26  0004  0004        	reti
  26  0005              _Interrupt_CTM0P endp
  26  0005              
  26  0005              #line 26 "F:\SVNRepo\Project\BS82D20A_AOPU_5KEY\USER_PROGRAM\USER_PROGRAM.C"
  26  0005              #pragma debug scope 1 1
  26  0005              ___intc1 equ [15]
  26  0005              ___rtcCnt_2010 equ [1156]
  26  0005              ___tickCnt_2009 equ [1152]
  26  0005              ___misCnt_2011 equ [1160]
  26  0005              public _Interrupt_CTM0A
  26  0005              #pragma debug scope 6 1
  34  0005              #line 34 "F:\SVNRepo\Project\BS82D20A_AOPU_5KEY\USER_PROGRAM\USER_PROGRAM.C"
  34  0000              @Interrupt_CTM0A_code .section at 20 'code'
  34  0000  0080     E  	mov r1,a
  34  0001  0704        	mov a,bp
  34  0002  0080     E  	mov r2,a
  34  0003  2800     R  	jmp _Interrupt_CTM0A
文件：USER_PROGRAM.C 编译器版本 HGASM 0202 页次3

  34  0004              #pragma debug scope 1 1
  34  0004              @dummy20 endp
  34  0004              #pragma debug scope 7 1
  34  0000              _Interrupt_CTM0A .section 'code'
  34  0000              _Interrupt_CTM0A proc
  34  0000  00          local _Interrupt_CTM0A_2 db 1 dup(?)
  34  0000  070A        	mov a,status
  34  0001  0080     E  	mov r3,a
  34  0002  0703        	mov a,mp
  34  0003  0080     E  	mov r4,a
  34  0004  0701        	mov a,sbp
  34  0005  0080     E  	mov r5,a
  34  0006  0707        	mov a,tblp
  34  0007  0080     E  	mov r6,a
  34  0008  0709        	mov a,tbhp
  34  0009  0080     E  	mov r7,a
  41  000A              #line 41 "F:\SVNRepo\Project\BS82D20A_AOPU_5KEY\USER_PROGRAM\USER_PROGRAM.C"
  41  000A              ;# 41 "F:\SVNRepo\Project\BS82D20A_AOPU_5KEY\USER_PROGRAM\USER_PROGRAM.C" 1
  41  000A  0000        	nop
  42  000B              #line 42 "F:\SVNRepo\Project\BS82D20A_AOPU_5KEY\USER_PROGRAM\USER_PROGRAM.C"
  42  000B  368F        	clr [15].5
  44  000C              #line 44 "F:\SVNRepo\Project\BS82D20A_AOPU_5KEY\USER_PROGRAM\USER_PROGRAM.C"
  44  000C  0F84        	mov a,low offset ___rtcCnt_2010
  44  000D  0083        	mov mp,a
  44  000E  0F04        	mov a,high offset ___rtcCnt_2010
  44  000F  0081        	mov sbp,a
  44  0010  0701        	mov a,sbp
  44  0011  0084        	mov bp,a
  44  0012  0702        	mov a,ir
  44  0013  0080     E  	mov rb,a
  44  0014  1483        	inc mp
  44  0015  0702        	mov a,ir
  44  0016  0080     E  	mov rc,a
  44  0017  1480     E  	inc rb
  44  0018  3D0A        	sz z
  44  0019  1480     E  	inc rc
  44  001A  0F84        	mov a,low offset ___rtcCnt_2010
  44  001B  0083        	mov mp,a
  44  001C  0F04        	mov a,high offset ___rtcCnt_2010
  44  001D  0081        	mov sbp,a
  44  001E  0701        	mov a,sbp
  44  001F  0084        	mov bp,a
  44  0020  0700     E  	mov a,rb
  44  0021  0082        	mov ir,a
  44  0022  1483        	inc mp
  44  0023  0700     E  	mov a,rc
  44  0024  0082        	mov ir,a
  44  0025  0FC7        	mov a,199
  44  0026  0200     E  	sub a,rb
  44  0027  0F00        	mov a,0
  44  0028  1200     E  	sbc a,rc
  44  0029  3C0A        	sz c
  44  002A  2800     R  	jmp _L4
  46  002B              #line 46 "F:\SVNRepo\Project\BS82D20A_AOPU_5KEY\USER_PROGRAM\USER_PROGRAM.C"
  46  002B  0F84        	mov a,low offset ___rtcCnt_2010
  46  002C  0083        	mov mp,a
  46  002D  0F04        	mov a,high offset ___rtcCnt_2010
  46  002E  0081        	mov sbp,a
  46  002F  0701        	mov a,sbp
  46  0030  0084        	mov bp,a
文件：USER_PROGRAM.C 编译器版本 HGASM 0202 页次4

  46  0031  1F02        	clr ir
  46  0032  1483        	inc mp
  46  0033  1F02        	clr ir
  47  0034              #line 47 "F:\SVNRepo\Project\BS82D20A_AOPU_5KEY\USER_PROGRAM\USER_PROGRAM.C"
  47  0034  1480     E  	inc _AppData[22]
  48  0035              #line 48 "F:\SVNRepo\Project\BS82D20A_AOPU_5KEY\USER_PROGRAM\USER_PROGRAM.C"
  48  0035  2000     E  	call _AppTimerRun
  48  0036              _L4:
  55  0036              #line 55 "F:\SVNRepo\Project\BS82D20A_AOPU_5KEY\USER_PROGRAM\USER_PROGRAM.C"
  55  0036  0F80        	mov a,low offset ___tickCnt_2009
  55  0037  0083        	mov mp,a
  55  0038  0F04        	mov a,high offset ___tickCnt_2009
  55  0039  0081        	mov sbp,a
  55  003A  0701        	mov a,sbp
  55  003B  0084        	mov bp,a
  55  003C  0702        	mov a,ir
  55  003D  0080     R  	mov _Interrupt_CTM0A_2[0],a
  55  003E  1400     R  	inca _Interrupt_CTM0A_2[0]
  55  003F  0080     E  	mov ra,a
  55  0040  0701        	mov a,sbp
  55  0041  0084        	mov bp,a
  55  0042  0700     E  	mov a,ra
  55  0043  0082        	mov ir,a
  55  0044  0F13        	mov a,19
  55  0045  0200     E  	sub a,ra
  55  0046  3C0A        	sz c
  55  0047  2800     R  	jmp _L5
  57  0048              #line 57 "F:\SVNRepo\Project\BS82D20A_AOPU_5KEY\USER_PROGRAM\USER_PROGRAM.C"
  57  0048  0701        	mov a,sbp
  57  0049  0084        	mov bp,a
  57  004A  0F00        	mov a,0
  57  004B  0082        	mov ir,a
  58  004C              #line 58 "F:\SVNRepo\Project\BS82D20A_AOPU_5KEY\USER_PROGRAM\USER_PROGRAM.C"
  58  004C  1480     E  	inc _AppData[6]
  58  004D  3D0A        	sz z
  58  004E  1480     E  	inc _AppData[7]
  59  004F              #line 59 "F:\SVNRepo\Project\BS82D20A_AOPU_5KEY\USER_PROGRAM\USER_PROGRAM.C"
  59  004F  2000     E  	call _PeripheralSet
  59  0050              _L5:
  62  0050              #line 62 "F:\SVNRepo\Project\BS82D20A_AOPU_5KEY\USER_PROGRAM\USER_PROGRAM.C"
  62  0050  0F88        	mov a,low offset ___misCnt_2011
  62  0051  0083        	mov mp,a
  62  0052  0F04        	mov a,high offset ___misCnt_2011
  62  0053  0081        	mov sbp,a
  62  0054  0701        	mov a,sbp
  62  0055  0084        	mov bp,a
  62  0056  0702        	mov a,ir
  62  0057  0080     R  	mov _Interrupt_CTM0A_2[0],a
  62  0058  1400     R  	inca _Interrupt_CTM0A_2[0]
  62  0059  0080     E  	mov ra,a
  62  005A  0701        	mov a,sbp
  62  005B  0084        	mov bp,a
  62  005C  0700     E  	mov a,ra
  62  005D  0082        	mov ir,a
  62  005E  0F01        	mov a,1
  62  005F  0200     E  	sub a,ra
  62  0060  3C0A        	sz c
  62  0061  2800     R  	jmp _L3
  64  0062              #line 64 "F:\SVNRepo\Project\BS82D20A_AOPU_5KEY\USER_PROGRAM\USER_PROGRAM.C"
  64  0062  0701        	mov a,sbp
文件：USER_PROGRAM.C 编译器版本 HGASM 0202 页次5

  64  0063  0084        	mov bp,a
  64  0064  0F00        	mov a,0
  64  0065  0082        	mov ir,a
  65  0066              #line 65 "F:\SVNRepo\Project\BS82D20A_AOPU_5KEY\USER_PROGRAM\USER_PROGRAM.C"
  65  0066  2000     E  	call _KeyScan
  66  0067              #line 66 "F:\SVNRepo\Project\BS82D20A_AOPU_5KEY\USER_PROGRAM\USER_PROGRAM.C"
  66  0067  2000     E  	call _BuzzIsr
  66  0068              _L3:
  66  0068  0700     E  	mov a,r2
  66  0069  0084        	mov bp,a
  66  006A  0700     E  	mov a,r3
  66  006B  008A        	mov status,a
  66  006C  0700     E  	mov a,r4
  66  006D  0083        	mov mp,a
  66  006E  0700     E  	mov a,r5
  66  006F  0081        	mov sbp,a
  66  0070  0700     E  	mov a,r6
  66  0071  0087        	mov tblp,a
  66  0072  0700     E  	mov a,r7
  66  0073  0089        	mov tbhp,a
  66  0074  1D05        	tabrdc acc
  66  0075  0700     E  	mov a,r1
  66  0076  0004        	reti
  66  0077              _Interrupt_CTM0A endp
  66  0077              
  66  0077              #line 66 "F:\SVNRepo\Project\BS82D20A_AOPU_5KEY\USER_PROGRAM\USER_PROGRAM.C"
  66  0077              #pragma debug scope 1 1
  66  0077              public _Interrupt_PTM1A
  66  0077              #pragma debug scope 8 1
  71  0077              #line 71 "F:\SVNRepo\Project\BS82D20A_AOPU_5KEY\USER_PROGRAM\USER_PROGRAM.C"
  71  0000              @Interrupt_PTM1A_code .section at 24 'code'
  71  0000  0080     E  	mov r1,a
  71  0001  070A        	mov a,status
  71  0002  0080     E  	mov r2,a
  71  0003  2800     R  	jmp _Interrupt_PTM1A
  71  0004              #pragma debug scope 1 1
  71  0004              @dummy24 endp
  71  0004              #pragma debug scope 9 1
  71  0000              _Interrupt_PTM1A .section 'code'
  71  0000              _Interrupt_PTM1A proc
  72  0000              #line 72 "F:\SVNRepo\Project\BS82D20A_AOPU_5KEY\USER_PROGRAM\USER_PROGRAM.C"
  72  0000  378F        	clr [15].7
  72  0001  0700     E  	mov a,r2
  72  0002  008A        	mov status,a
  72  0003  0700     E  	mov a,r1
  72  0004  0004        	reti
  72  0005              _Interrupt_PTM1A endp
  72  0005              
  72  0005              #line 72 "F:\SVNRepo\Project\BS82D20A_AOPU_5KEY\USER_PROGRAM\USER_PROGRAM.C"
  72  0005              #pragma debug scope 1 1
  72  0005              ___papu equ [22]
  72  0005              ___pac equ [21]
  72  0005              ___pa equ [20]
  72  0005              ___pcpu equ [59]
  72  0005              ___pcc equ [58]
  72  0005              ___pc equ [57]
  72  0005              ___pbpu equ [34]
  72  0005              ___pbc equ [33]
  72  0005              ___pb equ [32]
  72  0005              ___pdpu equ [67]
文件：USER_PROGRAM.C 编译器版本 HGASM 0202 页次6

  72  0005              ___pdc equ [66]
  72  0005              ___pd equ [65]
  72  0005              public _USER_PROGRAM_INITIAL
  72  0005              #pragma debug scope 10 1
  80  0005              #line 80 "F:\SVNRepo\Project\BS82D20A_AOPU_5KEY\USER_PROGRAM\USER_PROGRAM.C"
  80  0000              _USER_PROGRAM_INITIAL .section 'code'
  80  0000              _USER_PROGRAM_INITIAL proc
  81  0000              #line 81 "F:\SVNRepo\Project\BS82D20A_AOPU_5KEY\USER_PROGRAM\USER_PROGRAM.C"
  81  0000  1F96        	set [22]
  82  0001              #line 82 "F:\SVNRepo\Project\BS82D20A_AOPU_5KEY\USER_PROGRAM\USER_PROGRAM.C"
  82  0001  1F15        	clr [21]
  83  0002              #line 83 "F:\SVNRepo\Project\BS82D20A_AOPU_5KEY\USER_PROGRAM\USER_PROGRAM.C"
  83  0002  1F14        	clr [20]
  85  0003              #line 85 "F:\SVNRepo\Project\BS82D20A_AOPU_5KEY\USER_PROGRAM\USER_PROGRAM.C"
  85  0003  3215        	set [21].4
  87  0004              #line 87 "F:\SVNRepo\Project\BS82D20A_AOPU_5KEY\USER_PROGRAM\USER_PROGRAM.C"
  87  0004  1FBB        	set [59]
  88  0005              #line 88 "F:\SVNRepo\Project\BS82D20A_AOPU_5KEY\USER_PROGRAM\USER_PROGRAM.C"
  88  0005  1F3A        	clr [58]
  89  0006              #line 89 "F:\SVNRepo\Project\BS82D20A_AOPU_5KEY\USER_PROGRAM\USER_PROGRAM.C"
  89  0006  1F39        	clr [57]
  91  0007              #line 91 "F:\SVNRepo\Project\BS82D20A_AOPU_5KEY\USER_PROGRAM\USER_PROGRAM.C"
  91  0007  1FA2        	set [34]
  92  0008              #line 92 "F:\SVNRepo\Project\BS82D20A_AOPU_5KEY\USER_PROGRAM\USER_PROGRAM.C"
  92  0008  1F21        	clr [33]
  93  0009              #line 93 "F:\SVNRepo\Project\BS82D20A_AOPU_5KEY\USER_PROGRAM\USER_PROGRAM.C"
  93  0009  1F20        	clr [32]
  95  000A              #line 95 "F:\SVNRepo\Project\BS82D20A_AOPU_5KEY\USER_PROGRAM\USER_PROGRAM.C"
  95  000A  1FC3        	set [67]
  96  000B              #line 96 "F:\SVNRepo\Project\BS82D20A_AOPU_5KEY\USER_PROGRAM\USER_PROGRAM.C"
  96  000B  1F42        	clr [66]
  97  000C              #line 97 "F:\SVNRepo\Project\BS82D20A_AOPU_5KEY\USER_PROGRAM\USER_PROGRAM.C"
  97  000C  1F41        	clr [65]
 103  000D              #line 103 "F:\SVNRepo\Project\BS82D20A_AOPU_5KEY\USER_PROGRAM\USER_PROGRAM.C"
 103  000D  2000     E  	call _AppMainInit
 103  000E  0003        	ret
 103  000F              _USER_PROGRAM_INITIAL endp
 103  000F              #line 103 "F:\SVNRepo\Project\BS82D20A_AOPU_5KEY\USER_PROGRAM\USER_PROGRAM.C"
 103  000F              #pragma debug scope 1 1
 103  000F              public _USER_PROGRAM
 103  000F              #pragma debug scope 11 1
 110  000F              #line 110 "F:\SVNRepo\Project\BS82D20A_AOPU_5KEY\USER_PROGRAM\USER_PROGRAM.C"
 110  0000              _USER_PROGRAM .section 'code'
 110  0000              _USER_PROGRAM proc
 111  0000              #line 111 "F:\SVNRepo\Project\BS82D20A_AOPU_5KEY\USER_PROGRAM\USER_PROGRAM.C"
 111  0000  2000     E  	call _GET_KEY_BITMAP
 112  0001              #line 112 "F:\SVNRepo\Project\BS82D20A_AOPU_5KEY\USER_PROGRAM\USER_PROGRAM.C"
 112  0001  0700     E  	mov a,_DATA_BUF[0]
 112  0002  0080     E  	mov _AppData[3],a
 113  0003              #line 113 "F:\SVNRepo\Project\BS82D20A_AOPU_5KEY\USER_PROGRAM\USER_PROGRAM.C"
 113  0003  0700     E  	mov a,_DATA_BUF[1]
 113  0004  0080     E  	mov _AppData[4],a
 114  0005              #line 114 "F:\SVNRepo\Project\BS82D20A_AOPU_5KEY\USER_PROGRAM\USER_PROGRAM.C"
 114  0005  0700     E  	mov a,_DATA_BUF[2]
 114  0006  0080     E  	mov _AppData[5],a
 115  0007              #line 115 "F:\SVNRepo\Project\BS82D20A_AOPU_5KEY\USER_PROGRAM\USER_PROGRAM.C"
 115  0007  2000     E  	call _AppTask
 115  0008  0003        	ret
 115  0009              _USER_PROGRAM endp
 115  0009              #line 115 "F:\SVNRepo\Project\BS82D20A_AOPU_5KEY\USER_PROGRAM\USER_PROGRAM.C"
文件：USER_PROGRAM.C 编译器版本 HGASM 0202 页次7

 115  0009              #pragma debug scope 1 1
 115  0009              #pragma debug struct_end
 115  0009              #pragma debug struct_end
 115  0009              #pragma debug union_end
 115  0009              #pragma debug union_end
 115  0009              #pragma debug variable 43 1 ___intc1 "__intc1" 1
 115  0009              #pragma debug struct_end
 115  0009              #pragma debug struct_end
 115  0009              #pragma debug union_end
 115  0009              #pragma debug union_end
 115  0009              #pragma debug variable 45 1 ___pa "__pa" 1
 115  0009              #pragma debug struct_end
 115  0009              #pragma debug struct_end
 115  0009              #pragma debug union_end
 115  0009              #pragma debug union_end
 115  0009              #pragma debug variable 47 1 ___pac "__pac" 1
 115  0009              #pragma debug struct_end
 115  0009              #pragma debug struct_end
 115  0009              #pragma debug union_end
 115  0009              #pragma debug union_end
 115  0009              #pragma debug variable 49 1 ___papu "__papu" 1
 115  0009              #pragma debug struct_end
 115  0009              #pragma debug struct_end
 115  0009              #pragma debug union_end
 115  0009              #pragma debug union_end
 115  0009              #pragma debug variable 51 1 ___pb "__pb" 1
 115  0009              #pragma debug struct_end
 115  0009              #pragma debug struct_end
 115  0009              #pragma debug union_end
 115  0009              #pragma debug union_end
 115  0009              #pragma debug variable 53 1 ___pbc "__pbc" 1
 115  0009              #pragma debug struct_end
 115  0009              #pragma debug struct_end
 115  0009              #pragma debug union_end
 115  0009              #pragma debug union_end
 115  0009              #pragma debug variable 55 1 ___pbpu "__pbpu" 1
 115  0009              #pragma debug struct_end
 115  0009              #pragma debug struct_end
 115  0009              #pragma debug union_end
 115  0009              #pragma debug union_end
 115  0009              #pragma debug variable 57 1 ___pc "__pc" 1
 115  0009              #pragma debug struct_end
 115  0009              #pragma debug struct_end
 115  0009              #pragma debug union_end
 115  0009              #pragma debug union_end
 115  0009              #pragma debug variable 59 1 ___pcc "__pcc" 1
 115  0009              #pragma debug struct_end
 115  0009              #pragma debug struct_end
 115  0009              #pragma debug union_end
 115  0009              #pragma debug union_end
 115  0009              #pragma debug variable 61 1 ___pcpu "__pcpu" 1
 115  0009              #pragma debug struct_end
 115  0009              #pragma debug struct_end
 115  0009              #pragma debug union_end
 115  0009              #pragma debug union_end
 115  0009              #pragma debug variable 63 1 ___pd "__pd" 1
 115  0009              #pragma debug struct_end
 115  0009              #pragma debug struct_end
 115  0009              #pragma debug union_end
 115  0009              #pragma debug union_end
文件：USER_PROGRAM.C 编译器版本 HGASM 0202 页次8

 115  0009              #pragma debug variable 65 1 ___pdc "__pdc" 1
 115  0009              #pragma debug struct_end
 115  0009              #pragma debug struct_end
 115  0009              #pragma debug union_end
 115  0009              #pragma debug union_end
 115  0009              #pragma debug variable 67 1 ___pdpu "__pdpu" 1
 115  0009              #pragma debug variable 8 7 ___tickCnt_2009 "tickCnt" 1
 115  0009              #pragma debug variable 10 7 ___rtcCnt_2010 "rtcCnt" 2
 115  0009              #pragma debug variable 8 7 ___misCnt_2011 "misCnt" 1
 115  0009              
 115  0009              ; output external variables
 115  0009              extern _DATA_BUF:byte
 115  0009              extern _AppData:byte
 115  0009              extern r1:byte
 115  0009              extern r2:byte
 115  0009              extern r3:byte
 115  0009              extern r4:byte
 115  0009              extern r5:byte
 115  0009              extern r6:byte
 115  0009              extern r7:byte
 115  0009              extern _AppTimerRun:near
 115  0009              extern _PeripheralSet:near
 115  0009              extern _KeyScan:near
 115  0009              extern _BuzzIsr:near
 115  0009              extern _AppMainInit:near
 115  0009              extern _GET_KEY_BITMAP:near
 115  0009              extern _AppTask:near
 115  0009              
 115  0009              ; 
 115  0009              ; Generated by holtek-gcc v3.18, Thu Aug 02 09:03:51 2018
 115  0009              ; Rebuild 126
 115  0009              ; end of file


        0 Errors, 0